
PWMDrawer.elf:     file format elf32-avr

Sections:
Idx Name          Size      VMA       LMA       File off  Algn
  0 .text         0000160a  00000000  00000000  00000094  2**1
                  CONTENTS, ALLOC, LOAD, READONLY, CODE
  1 .data         0000025e  00800060  0000160a  0000169e  2**0
                  CONTENTS, ALLOC, LOAD, DATA
  2 .bss          00000002  008002be  008002be  000018fc  2**0
                  ALLOC
  3 .comment      0000005c  00000000  00000000  000018fc  2**0
                  CONTENTS, READONLY
  4 .note.gnu.avr.deviceinfo 0000003c  00000000  00000000  00001958  2**2
                  CONTENTS, READONLY
  5 .debug_aranges 000000e8  00000000  00000000  00001994  2**0
                  CONTENTS, READONLY, DEBUGGING
  6 .debug_info   000013cc  00000000  00000000  00001a7c  2**0
                  CONTENTS, READONLY, DEBUGGING
  7 .debug_abbrev 00000aa0  00000000  00000000  00002e48  2**0
                  CONTENTS, READONLY, DEBUGGING
  8 .debug_line   00000ad4  00000000  00000000  000038e8  2**0
                  CONTENTS, READONLY, DEBUGGING
  9 .debug_frame  00000294  00000000  00000000  000043bc  2**2
                  CONTENTS, READONLY, DEBUGGING
 10 .debug_str    00000554  00000000  00000000  00004650  2**0
                  CONTENTS, READONLY, DEBUGGING
 11 .debug_loc    00000c89  00000000  00000000  00004ba4  2**0
                  CONTENTS, READONLY, DEBUGGING
 12 .debug_ranges 000000c8  00000000  00000000  0000582d  2**0
                  CONTENTS, READONLY, DEBUGGING

Disassembly of section .text:

00000000 <__vectors>:
       0:	0c 94 2a 00 	jmp	0x54	; 0x54 <__ctors_end>
       4:	0c 94 47 00 	jmp	0x8e	; 0x8e <__bad_interrupt>
       8:	0c 94 47 00 	jmp	0x8e	; 0x8e <__bad_interrupt>
       c:	0c 94 47 00 	jmp	0x8e	; 0x8e <__bad_interrupt>
      10:	0c 94 47 00 	jmp	0x8e	; 0x8e <__bad_interrupt>
      14:	0c 94 47 00 	jmp	0x8e	; 0x8e <__bad_interrupt>
      18:	0c 94 47 00 	jmp	0x8e	; 0x8e <__bad_interrupt>
      1c:	0c 94 47 00 	jmp	0x8e	; 0x8e <__bad_interrupt>
      20:	0c 94 47 00 	jmp	0x8e	; 0x8e <__bad_interrupt>
      24:	0c 94 47 00 	jmp	0x8e	; 0x8e <__bad_interrupt>
      28:	0c 94 47 00 	jmp	0x8e	; 0x8e <__bad_interrupt>
      2c:	0c 94 47 00 	jmp	0x8e	; 0x8e <__bad_interrupt>
      30:	0c 94 47 00 	jmp	0x8e	; 0x8e <__bad_interrupt>
      34:	0c 94 47 00 	jmp	0x8e	; 0x8e <__bad_interrupt>
      38:	0c 94 47 00 	jmp	0x8e	; 0x8e <__bad_interrupt>
      3c:	0c 94 47 00 	jmp	0x8e	; 0x8e <__bad_interrupt>
      40:	0c 94 47 00 	jmp	0x8e	; 0x8e <__bad_interrupt>
      44:	0c 94 47 00 	jmp	0x8e	; 0x8e <__bad_interrupt>
      48:	0c 94 47 00 	jmp	0x8e	; 0x8e <__bad_interrupt>
      4c:	0c 94 47 00 	jmp	0x8e	; 0x8e <__bad_interrupt>
      50:	0c 94 47 00 	jmp	0x8e	; 0x8e <__bad_interrupt>

00000054 <__ctors_end>:
      54:	11 24       	eor	r1, r1
      56:	1f be       	out	0x3f, r1	; 63
      58:	cf e5       	ldi	r28, 0x5F	; 95
      5a:	d8 e0       	ldi	r29, 0x08	; 8
      5c:	de bf       	out	0x3e, r29	; 62
      5e:	cd bf       	out	0x3d, r28	; 61

00000060 <__do_copy_data>:
      60:	12 e0       	ldi	r17, 0x02	; 2
      62:	a0 e6       	ldi	r26, 0x60	; 96
      64:	b0 e0       	ldi	r27, 0x00	; 0
      66:	ea e0       	ldi	r30, 0x0A	; 10
      68:	f6 e1       	ldi	r31, 0x16	; 22
      6a:	02 c0       	rjmp	.+4      	; 0x70 <__do_copy_data+0x10>
      6c:	05 90       	lpm	r0, Z+
      6e:	0d 92       	st	X+, r0
      70:	ae 3b       	cpi	r26, 0xBE	; 190
      72:	b1 07       	cpc	r27, r17
      74:	d9 f7       	brne	.-10     	; 0x6c <__do_copy_data+0xc>

00000076 <__do_clear_bss>:
      76:	22 e0       	ldi	r18, 0x02	; 2
      78:	ae eb       	ldi	r26, 0xBE	; 190
      7a:	b2 e0       	ldi	r27, 0x02	; 2
      7c:	01 c0       	rjmp	.+2      	; 0x80 <.do_clear_bss_start>

0000007e <.do_clear_bss_loop>:
      7e:	1d 92       	st	X+, r1

00000080 <.do_clear_bss_start>:
      80:	a0 3c       	cpi	r26, 0xC0	; 192
      82:	b2 07       	cpc	r27, r18
      84:	e1 f7       	brne	.-8      	; 0x7e <.do_clear_bss_loop>
      86:	0e 94 6a 03 	call	0x6d4	; 0x6d4 <main>
      8a:	0c 94 03 0b 	jmp	0x1606	; 0x1606 <_exit>

0000008e <__bad_interrupt>:
      8e:	0c 94 00 00 	jmp	0	; 0x0 <__vectors>

00000092 <PWM_Drawer_internal_init>:
      92:	1f 93       	push	r17
      94:	cf 93       	push	r28
      96:	df 93       	push	r29
      98:	d8 2f       	mov	r29, r24
      9a:	16 2f       	mov	r17, r22
      9c:	c4 2f       	mov	r28, r20
      9e:	0e 94 5b 01 	call	0x2b6	; 0x2b6 <GLCD_Init>
      a2:	0e 94 90 01 	call	0x320	; 0x320 <GLCD_ClearAll>
      a6:	61 2f       	mov	r22, r17
      a8:	8d 2f       	mov	r24, r29
      aa:	0e 94 2a 05 	call	0xa54	; 0xa54 <PWM_Start>
      ae:	8c 2f       	mov	r24, r28
      b0:	0e 94 34 05 	call	0xa68	; 0xa68 <PWM_SetDuty>
      b4:	df 91       	pop	r29
      b6:	cf 91       	pop	r28
      b8:	1f 91       	pop	r17
      ba:	08 95       	ret

000000bc <PWM_Draw_Signal>:
      bc:	8f 92       	push	r8
      be:	9f 92       	push	r9
      c0:	af 92       	push	r10
      c2:	bf 92       	push	r11
      c4:	cf 92       	push	r12
      c6:	df 92       	push	r13
      c8:	ef 92       	push	r14
      ca:	ff 92       	push	r15
      cc:	0f 93       	push	r16
      ce:	1f 93       	push	r17
      d0:	cf 93       	push	r28
      d2:	df 93       	push	r29
      d4:	cd b7       	in	r28, 0x3d	; 61
      d6:	de b7       	in	r29, 0x3e	; 62
      d8:	e7 97       	sbiw	r28, 0x37	; 55
      da:	0f b6       	in	r0, 0x3f	; 63
      dc:	f8 94       	cli
      de:	de bf       	out	0x3e, r29	; 62
      e0:	0f be       	out	0x3f, r0	; 63
      e2:	cd bf       	out	0x3d, r28	; 61
      e4:	fe 01       	movw	r30, r28
      e6:	31 96       	adiw	r30, 0x01	; 1
      e8:	8f e0       	ldi	r24, 0x0F	; 15
      ea:	df 01       	movw	r26, r30
      ec:	1d 92       	st	X+, r1
      ee:	8a 95       	dec	r24
      f0:	e9 f7       	brne	.-6      	; 0xec <PWM_Draw_Signal+0x30>
      f2:	01 90       	ld	r0, Z+
      f4:	00 20       	and	r0, r0
      f6:	e9 f7       	brne	.-6      	; 0xf2 <PWM_Draw_Signal+0x36>
      f8:	31 97       	sbiw	r30, 0x01	; 1
      fa:	84 e2       	ldi	r24, 0x24	; 36
      fc:	90 e0       	ldi	r25, 0x00	; 0
      fe:	91 83       	std	Z+1, r25	; 0x01
     100:	80 83       	st	Z, r24
     102:	fe 01       	movw	r30, r28
     104:	70 96       	adiw	r30, 0x10	; 16
     106:	01 90       	ld	r0, Z+
     108:	00 20       	and	r0, r0
     10a:	e9 f7       	brne	.-6      	; 0x106 <PWM_Draw_Signal+0x4a>
     10c:	31 97       	sbiw	r30, 0x01	; 1
     10e:	86 e2       	ldi	r24, 0x26	; 38
     110:	90 e0       	ldi	r25, 0x00	; 0
     112:	91 83       	std	Z+1, r25	; 0x01
     114:	80 83       	st	Z, r24
     116:	81 2c       	mov	r8, r1
     118:	91 2c       	mov	r9, r1
     11a:	54 01       	movw	r10, r8
     11c:	e0 e0       	ldi	r30, 0x00	; 0
     11e:	f0 e0       	ldi	r31, 0x00	; 0
     120:	00 e0       	ldi	r16, 0x00	; 0
     122:	10 e0       	ldi	r17, 0x00	; 0
     124:	68 c0       	rjmp	.+208    	; 0x1f6 <PWM_Draw_Signal+0x13a>
     126:	de 01       	movw	r26, r28
     128:	50 96       	adiw	r26, 0x10	; 16
     12a:	0d 90       	ld	r0, X+
     12c:	00 20       	and	r0, r0
     12e:	e9 f7       	brne	.-6      	; 0x12a <PWM_Draw_Signal+0x6e>
     130:	11 97       	sbiw	r26, 0x01	; 1
     132:	87 e2       	ldi	r24, 0x27	; 39
     134:	90 e0       	ldi	r25, 0x00	; 0
     136:	8d 93       	st	X+, r24
     138:	9c 93       	st	X, r25
     13a:	0f 5f       	subi	r16, 0xFF	; 255
     13c:	1f 4f       	sbci	r17, 0xFF	; 255
     13e:	bf ef       	ldi	r27, 0xFF	; 255
     140:	cb 1a       	sub	r12, r27
     142:	db 0a       	sbc	r13, r27
     144:	eb 0a       	sbc	r14, r27
     146:	fb 0a       	sbc	r15, r27
     148:	03 c0       	rjmp	.+6      	; 0x150 <PWM_Draw_Signal+0x94>
     14a:	c1 2c       	mov	r12, r1
     14c:	d1 2c       	mov	r13, r1
     14e:	76 01       	movw	r14, r12
     150:	80 91 be 02 	lds	r24, 0x02BE	; 0x8002be <__data_end>
     154:	90 91 bf 02 	lds	r25, 0x02BF	; 0x8002bf <__data_end+0x1>
     158:	6a e0       	ldi	r22, 0x0A	; 10
     15a:	70 e0       	ldi	r23, 0x00	; 0
     15c:	0e 94 83 07 	call	0xf06	; 0xf06 <__divmodhi4>
     160:	cb 01       	movw	r24, r22
     162:	77 0f       	add	r23, r23
     164:	aa 0b       	sbc	r26, r26
     166:	bb 0b       	sbc	r27, r27
     168:	c8 16       	cp	r12, r24
     16a:	d9 06       	cpc	r13, r25
     16c:	ea 06       	cpc	r14, r26
     16e:	fb 06       	cpc	r15, r27
     170:	d0 f2       	brcs	.-76     	; 0x126 <PWM_Draw_Signal+0x6a>
     172:	de 01       	movw	r26, r28
     174:	50 96       	adiw	r26, 0x10	; 16
     176:	0d 90       	ld	r0, X+
     178:	00 20       	and	r0, r0
     17a:	e9 f7       	brne	.-6      	; 0x176 <PWM_Draw_Signal+0xba>
     17c:	11 97       	sbiw	r26, 0x01	; 1
     17e:	89 e2       	ldi	r24, 0x29	; 41
     180:	90 e0       	ldi	r25, 0x00	; 0
     182:	8d 93       	st	X+, r24
     184:	9c 93       	st	X, r25
     186:	c1 2c       	mov	r12, r1
     188:	d1 2c       	mov	r13, r1
     18a:	76 01       	movw	r14, r12
     18c:	10 c0       	rjmp	.+32     	; 0x1ae <PWM_Draw_Signal+0xf2>
     18e:	de 01       	movw	r26, r28
     190:	50 96       	adiw	r26, 0x10	; 16
     192:	0d 90       	ld	r0, X+
     194:	00 20       	and	r0, r0
     196:	e9 f7       	brne	.-6      	; 0x192 <PWM_Draw_Signal+0xd6>
     198:	11 97       	sbiw	r26, 0x01	; 1
     19a:	88 e2       	ldi	r24, 0x28	; 40
     19c:	90 e0       	ldi	r25, 0x00	; 0
     19e:	8d 93       	st	X+, r24
     1a0:	9c 93       	st	X, r25
     1a2:	31 96       	adiw	r30, 0x01	; 1
     1a4:	8f ef       	ldi	r24, 0xFF	; 255
     1a6:	c8 1a       	sub	r12, r24
     1a8:	d8 0a       	sbc	r13, r24
     1aa:	e8 0a       	sbc	r14, r24
     1ac:	f8 0a       	sbc	r15, r24
     1ae:	80 91 be 02 	lds	r24, 0x02BE	; 0x8002be <__data_end>
     1b2:	90 91 bf 02 	lds	r25, 0x02BF	; 0x8002bf <__data_end+0x1>
     1b6:	2a e0       	ldi	r18, 0x0A	; 10
     1b8:	30 e0       	ldi	r19, 0x00	; 0
     1ba:	b9 01       	movw	r22, r18
     1bc:	0e 94 83 07 	call	0xf06	; 0xf06 <__divmodhi4>
     1c0:	c9 01       	movw	r24, r18
     1c2:	86 1b       	sub	r24, r22
     1c4:	97 0b       	sbc	r25, r23
     1c6:	09 2e       	mov	r0, r25
     1c8:	00 0c       	add	r0, r0
     1ca:	aa 0b       	sbc	r26, r26
     1cc:	bb 0b       	sbc	r27, r27
     1ce:	c8 16       	cp	r12, r24
     1d0:	d9 06       	cpc	r13, r25
     1d2:	ea 06       	cpc	r14, r26
     1d4:	fb 06       	cpc	r15, r27
     1d6:	d8 f2       	brcs	.-74     	; 0x18e <PWM_Draw_Signal+0xd2>
     1d8:	de 01       	movw	r26, r28
     1da:	50 96       	adiw	r26, 0x10	; 16
     1dc:	0d 90       	ld	r0, X+
     1de:	00 20       	and	r0, r0
     1e0:	e9 f7       	brne	.-6      	; 0x1dc <PWM_Draw_Signal+0x120>
     1e2:	11 97       	sbiw	r26, 0x01	; 1
     1e4:	86 e2       	ldi	r24, 0x26	; 38
     1e6:	90 e0       	ldi	r25, 0x00	; 0
     1e8:	8d 93       	st	X+, r24
     1ea:	9c 93       	st	X, r25
     1ec:	af ef       	ldi	r26, 0xFF	; 255
     1ee:	8a 1a       	sub	r8, r26
     1f0:	9a 0a       	sbc	r9, r26
     1f2:	aa 0a       	sbc	r10, r26
     1f4:	ba 0a       	sbc	r11, r26
     1f6:	b2 e0       	ldi	r27, 0x02	; 2
     1f8:	8b 16       	cp	r8, r27
     1fa:	91 04       	cpc	r9, r1
     1fc:	a1 04       	cpc	r10, r1
     1fe:	b1 04       	cpc	r11, r1
     200:	08 f4       	brcc	.+2      	; 0x204 <PWM_Draw_Signal+0x148>
     202:	a3 cf       	rjmp	.-186    	; 0x14a <PWM_Draw_Signal+0x8e>
     204:	e0 0f       	add	r30, r16
     206:	f1 1f       	adc	r31, r17
     208:	ff 23       	and	r31, r31
     20a:	0c f4       	brge	.+2      	; 0x20e <PWM_Draw_Signal+0x152>
     20c:	31 96       	adiw	r30, 0x01	; 1
     20e:	f5 95       	asr	r31
     210:	e7 95       	ror	r30
     212:	0b c0       	rjmp	.+22     	; 0x22a <PWM_Draw_Signal+0x16e>
     214:	de 01       	movw	r26, r28
     216:	11 96       	adiw	r26, 0x01	; 1
     218:	0d 90       	ld	r0, X+
     21a:	00 20       	and	r0, r0
     21c:	e9 f7       	brne	.-6      	; 0x218 <PWM_Draw_Signal+0x15c>
     21e:	11 97       	sbiw	r26, 0x01	; 1
     220:	83 e2       	ldi	r24, 0x23	; 35
     222:	90 e0       	ldi	r25, 0x00	; 0
     224:	8d 93       	st	X+, r24
     226:	9c 93       	st	X, r25
     228:	31 97       	sbiw	r30, 0x01	; 1
     22a:	1e 16       	cp	r1, r30
     22c:	1f 06       	cpc	r1, r31
     22e:	94 f3       	brlt	.-28     	; 0x214 <PWM_Draw_Signal+0x158>
     230:	be 01       	movw	r22, r28
     232:	6f 5f       	subi	r22, 0xFF	; 255
     234:	7f 4f       	sbci	r23, 0xFF	; 255
     236:	fb 01       	movw	r30, r22
     238:	01 90       	ld	r0, Z+
     23a:	00 20       	and	r0, r0
     23c:	e9 f7       	brne	.-6      	; 0x238 <PWM_Draw_Signal+0x17c>
     23e:	31 97       	sbiw	r30, 0x01	; 1
     240:	80 e4       	ldi	r24, 0x40	; 64
     242:	90 e0       	ldi	r25, 0x00	; 0
     244:	91 83       	std	Z+1, r25	; 0x01
     246:	80 83       	st	Z, r24
     248:	40 e0       	ldi	r20, 0x00	; 0
     24a:	86 e0       	ldi	r24, 0x06	; 6
     24c:	0e 94 b8 01 	call	0x370	; 0x370 <GLCD_String>
     250:	40 e0       	ldi	r20, 0x00	; 0
     252:	be 01       	movw	r22, r28
     254:	60 5f       	subi	r22, 0xF0	; 240
     256:	7f 4f       	sbci	r23, 0xFF	; 255
     258:	87 e0       	ldi	r24, 0x07	; 7
     25a:	0e 94 b8 01 	call	0x370	; 0x370 <GLCD_String>
     25e:	e7 96       	adiw	r28, 0x37	; 55
     260:	0f b6       	in	r0, 0x3f	; 63
     262:	f8 94       	cli
     264:	de bf       	out	0x3e, r29	; 62
     266:	0f be       	out	0x3f, r0	; 63
     268:	cd bf       	out	0x3d, r28	; 61
     26a:	df 91       	pop	r29
     26c:	cf 91       	pop	r28
     26e:	1f 91       	pop	r17
     270:	0f 91       	pop	r16
     272:	ff 90       	pop	r15
     274:	ef 90       	pop	r14
     276:	df 90       	pop	r13
     278:	cf 90       	pop	r12
     27a:	bf 90       	pop	r11
     27c:	af 90       	pop	r10
     27e:	9f 90       	pop	r9
     280:	8f 90       	pop	r8
     282:	08 95       	ret

00000284 <PWM_Get_Signal>:
     284:	0e 94 09 04 	call	0x812	; 0x812 <ICU_GetPWM>
     288:	08 95       	ret

0000028a <GLCD_Command>:
     28a:	8b bb       	out	0x1b, r24	; 27
     28c:	85 b3       	in	r24, 0x15	; 21
     28e:	8e 7f       	andi	r24, 0xFE	; 254
     290:	85 bb       	out	0x15, r24	; 21
     292:	85 b3       	in	r24, 0x15	; 21
     294:	8d 7f       	andi	r24, 0xFD	; 253
     296:	85 bb       	out	0x15, r24	; 21
     298:	85 b3       	in	r24, 0x15	; 21
     29a:	84 60       	ori	r24, 0x04	; 4
     29c:	85 bb       	out	0x15, r24	; 21
	#else
		//round up by default
		__ticks_dc = (uint32_t)(ceil(fabs(__tmp)));
	#endif

	__builtin_avr_delay_cycles(__ticks_dc);
     29e:	8a e1       	ldi	r24, 0x1A	; 26
     2a0:	8a 95       	dec	r24
     2a2:	f1 f7       	brne	.-4      	; 0x2a0 <GLCD_Command+0x16>
     2a4:	00 c0       	rjmp	.+0      	; 0x2a6 <GLCD_Command+0x1c>
     2a6:	85 b3       	in	r24, 0x15	; 21
     2a8:	8b 7f       	andi	r24, 0xFB	; 251
     2aa:	85 bb       	out	0x15, r24	; 21
     2ac:	8a e1       	ldi	r24, 0x1A	; 26
     2ae:	8a 95       	dec	r24
     2b0:	f1 f7       	brne	.-4      	; 0x2ae <GLCD_Command+0x24>
     2b2:	00 c0       	rjmp	.+0      	; 0x2b4 <GLCD_Command+0x2a>
     2b4:	08 95       	ret

000002b6 <GLCD_Init>:
     2b6:	8f ef       	ldi	r24, 0xFF	; 255
     2b8:	8a bb       	out	0x1a, r24	; 26
     2ba:	84 bb       	out	0x14, r24	; 20
     2bc:	85 b3       	in	r24, 0x15	; 21
     2be:	88 63       	ori	r24, 0x38	; 56
     2c0:	85 bb       	out	0x15, r24	; 21
	#else
		//round up by default
		__ticks_dc = (uint32_t)(ceil(fabs(__tmp)));
	#endif

	__builtin_avr_delay_cycles(__ticks_dc);
     2c2:	2f ef       	ldi	r18, 0xFF	; 255
     2c4:	89 ef       	ldi	r24, 0xF9	; 249
     2c6:	90 e0       	ldi	r25, 0x00	; 0
     2c8:	21 50       	subi	r18, 0x01	; 1
     2ca:	80 40       	sbci	r24, 0x00	; 0
     2cc:	90 40       	sbci	r25, 0x00	; 0
     2ce:	e1 f7       	brne	.-8      	; 0x2c8 <GLCD_Init+0x12>
     2d0:	00 c0       	rjmp	.+0      	; 0x2d2 <GLCD_Init+0x1c>
     2d2:	00 00       	nop
     2d4:	8e e3       	ldi	r24, 0x3E	; 62
     2d6:	0e 94 45 01 	call	0x28a	; 0x28a <GLCD_Command>
     2da:	80 e4       	ldi	r24, 0x40	; 64
     2dc:	0e 94 45 01 	call	0x28a	; 0x28a <GLCD_Command>
     2e0:	88 eb       	ldi	r24, 0xB8	; 184
     2e2:	0e 94 45 01 	call	0x28a	; 0x28a <GLCD_Command>
     2e6:	80 ec       	ldi	r24, 0xC0	; 192
     2e8:	0e 94 45 01 	call	0x28a	; 0x28a <GLCD_Command>
     2ec:	8f e3       	ldi	r24, 0x3F	; 63
     2ee:	0e 94 45 01 	call	0x28a	; 0x28a <GLCD_Command>
     2f2:	08 95       	ret

000002f4 <GLCD_Data>:
     2f4:	8b bb       	out	0x1b, r24	; 27
     2f6:	85 b3       	in	r24, 0x15	; 21
     2f8:	81 60       	ori	r24, 0x01	; 1
     2fa:	85 bb       	out	0x15, r24	; 21
     2fc:	85 b3       	in	r24, 0x15	; 21
     2fe:	8d 7f       	andi	r24, 0xFD	; 253
     300:	85 bb       	out	0x15, r24	; 21
     302:	85 b3       	in	r24, 0x15	; 21
     304:	84 60       	ori	r24, 0x04	; 4
     306:	85 bb       	out	0x15, r24	; 21
	#else
		//round up by default
		__ticks_dc = (uint32_t)(ceil(fabs(__tmp)));
	#endif

	__builtin_avr_delay_cycles(__ticks_dc);
     308:	8a e1       	ldi	r24, 0x1A	; 26
     30a:	8a 95       	dec	r24
     30c:	f1 f7       	brne	.-4      	; 0x30a <GLCD_Data+0x16>
     30e:	00 c0       	rjmp	.+0      	; 0x310 <GLCD_Data+0x1c>
     310:	85 b3       	in	r24, 0x15	; 21
     312:	8b 7f       	andi	r24, 0xFB	; 251
     314:	85 bb       	out	0x15, r24	; 21
     316:	8a e1       	ldi	r24, 0x1A	; 26
     318:	8a 95       	dec	r24
     31a:	f1 f7       	brne	.-4      	; 0x318 <GLCD_Data+0x24>
     31c:	00 c0       	rjmp	.+0      	; 0x31e <GLCD_Data+0x2a>
     31e:	08 95       	ret

00000320 <GLCD_ClearAll>:
     320:	0f 93       	push	r16
     322:	1f 93       	push	r17
     324:	cf 93       	push	r28
     326:	df 93       	push	r29
     328:	85 b3       	in	r24, 0x15	; 21
     32a:	88 61       	ori	r24, 0x18	; 24
     32c:	85 bb       	out	0x15, r24	; 21
     32e:	00 e0       	ldi	r16, 0x00	; 0
     330:	10 e0       	ldi	r17, 0x00	; 0
     332:	10 c0       	rjmp	.+32     	; 0x354 <GLCD_ClearAll+0x34>
     334:	88 eb       	ldi	r24, 0xB8	; 184
     336:	80 0f       	add	r24, r16
     338:	0e 94 45 01 	call	0x28a	; 0x28a <GLCD_Command>
     33c:	c0 e0       	ldi	r28, 0x00	; 0
     33e:	d0 e0       	ldi	r29, 0x00	; 0
     340:	04 c0       	rjmp	.+8      	; 0x34a <GLCD_ClearAll+0x2a>
     342:	80 e0       	ldi	r24, 0x00	; 0
     344:	0e 94 7a 01 	call	0x2f4	; 0x2f4 <GLCD_Data>
     348:	21 96       	adiw	r28, 0x01	; 1
     34a:	c0 34       	cpi	r28, 0x40	; 64
     34c:	d1 05       	cpc	r29, r1
     34e:	cc f3       	brlt	.-14     	; 0x342 <GLCD_ClearAll+0x22>
     350:	0f 5f       	subi	r16, 0xFF	; 255
     352:	1f 4f       	sbci	r17, 0xFF	; 255
     354:	08 30       	cpi	r16, 0x08	; 8
     356:	11 05       	cpc	r17, r1
     358:	6c f3       	brlt	.-38     	; 0x334 <GLCD_ClearAll+0x14>
     35a:	80 e4       	ldi	r24, 0x40	; 64
     35c:	0e 94 45 01 	call	0x28a	; 0x28a <GLCD_Command>
     360:	88 eb       	ldi	r24, 0xB8	; 184
     362:	0e 94 45 01 	call	0x28a	; 0x28a <GLCD_Command>
     366:	df 91       	pop	r29
     368:	cf 91       	pop	r28
     36a:	1f 91       	pop	r17
     36c:	0f 91       	pop	r16
     36e:	08 95       	ret

00000370 <GLCD_String>:
     370:	2f 92       	push	r2
     372:	3f 92       	push	r3
     374:	4f 92       	push	r4
     376:	5f 92       	push	r5
     378:	6f 92       	push	r6
     37a:	7f 92       	push	r7
     37c:	8f 92       	push	r8
     37e:	9f 92       	push	r9
     380:	af 92       	push	r10
     382:	bf 92       	push	r11
     384:	cf 92       	push	r12
     386:	df 92       	push	r13
     388:	ef 92       	push	r14
     38a:	ff 92       	push	r15
     38c:	0f 93       	push	r16
     38e:	1f 93       	push	r17
     390:	cf 93       	push	r28
     392:	df 93       	push	r29
     394:	cd b7       	in	r28, 0x3d	; 61
     396:	de b7       	in	r29, 0x3e	; 62
     398:	2a 97       	sbiw	r28, 0x0a	; 10
     39a:	0f b6       	in	r0, 0x3f	; 63
     39c:	f8 94       	cli
     39e:	de bf       	out	0x3e, r29	; 62
     3a0:	0f be       	out	0x3f, r0	; 63
     3a2:	cd bf       	out	0x3d, r28	; 61
     3a4:	78 87       	std	Y+8, r23	; 0x08
     3a6:	6f 83       	std	Y+7, r22	; 0x07
     3a8:	28 2f       	mov	r18, r24
     3aa:	30 e0       	ldi	r19, 0x00	; 0
     3ac:	3e 83       	std	Y+6, r19	; 0x06
     3ae:	2d 83       	std	Y+5, r18	; 0x05
     3b0:	c9 01       	movw	r24, r18
     3b2:	88 54       	subi	r24, 0x48	; 72
     3b4:	9f 4f       	sbci	r25, 0xFF	; 255
     3b6:	9c 83       	std	Y+4, r25	; 0x04
     3b8:	8b 83       	std	Y+3, r24	; 0x03
     3ba:	41 11       	cpse	r20, r1
     3bc:	07 c0       	rjmp	.+14     	; 0x3cc <GLCD_String+0x5c>
     3be:	25 b3       	in	r18, 0x15	; 21
     3c0:	28 60       	ori	r18, 0x08	; 8
     3c2:	25 bb       	out	0x15, r18	; 21
     3c4:	25 b3       	in	r18, 0x15	; 21
     3c6:	2f 7e       	andi	r18, 0xEF	; 239
     3c8:	25 bb       	out	0x15, r18	; 21
     3ca:	06 c0       	rjmp	.+12     	; 0x3d8 <GLCD_String+0x68>
     3cc:	25 b3       	in	r18, 0x15	; 21
     3ce:	20 61       	ori	r18, 0x10	; 16
     3d0:	25 bb       	out	0x15, r18	; 21
     3d2:	25 b3       	in	r18, 0x15	; 21
     3d4:	27 7f       	andi	r18, 0xF7	; 247
     3d6:	25 bb       	out	0x15, r18	; 21
     3d8:	0e 94 45 01 	call	0x28a	; 0x28a <GLCD_Command>
     3dc:	51 2c       	mov	r5, r1
     3de:	31 2c       	mov	r3, r1
     3e0:	21 2c       	mov	r2, r1
     3e2:	0f 2e       	mov	r0, r31
     3e4:	ff e3       	ldi	r31, 0x3F	; 63
     3e6:	4f 2e       	mov	r4, r31
     3e8:	f0 2d       	mov	r31, r0
     3ea:	1a 86       	std	Y+10, r1	; 0x0a
     3ec:	19 86       	std	Y+9, r1	; 0x09
     3ee:	1a 82       	std	Y+2, r1	; 0x02
     3f0:	19 82       	std	Y+1, r1	; 0x01
     3f2:	4a c1       	rjmp	.+660    	; 0x688 <__EEPROM_REGION_LENGTH__+0x288>
     3f4:	6d 80       	ldd	r6, Y+5	; 0x05
     3f6:	7e 80       	ldd	r7, Y+6	; 0x06
     3f8:	71 94       	neg	r7
     3fa:	61 94       	neg	r6
     3fc:	71 08       	sbc	r7, r1
     3fe:	76 94       	lsr	r7
     400:	76 2c       	mov	r7, r6
     402:	66 24       	eor	r6, r6
     404:	77 94       	ror	r7
     406:	67 94       	ror	r6
     408:	95 e0       	ldi	r25, 0x05	; 5
     40a:	69 1a       	sub	r6, r25
     40c:	9c ef       	ldi	r25, 0xFC	; 252
     40e:	79 0a       	sbc	r7, r25
     410:	e9 85       	ldd	r30, Y+9	; 0x09
     412:	fa 85       	ldd	r31, Y+10	; 0x0a
     414:	6e 16       	cp	r6, r30
     416:	7f 06       	cpc	r7, r31
     418:	08 f4       	brcc	.+2      	; 0x41c <__EEPROM_REGION_LENGTH__+0x1c>
     41a:	40 c1       	rjmp	.+640    	; 0x69c <__EEPROM_REGION_LENGTH__+0x29c>
     41c:	80 32       	cpi	r24, 0x20	; 32
     41e:	09 f0       	breq	.+2      	; 0x422 <__EEPROM_REGION_LENGTH__+0x22>
     420:	48 c0       	rjmp	.+144    	; 0x4b2 <__EEPROM_REGION_LENGTH__+0xb2>
     422:	50 c0       	rjmp	.+160    	; 0x4c4 <__EEPROM_REGION_LENGTH__+0xc4>
     424:	a9 84       	ldd	r10, Y+9	; 0x09
     426:	ba 84       	ldd	r11, Y+10	; 0x0a
     428:	ae 0c       	add	r10, r14
     42a:	bf 1c       	adc	r11, r15
     42c:	20 e0       	ldi	r18, 0x00	; 0
     42e:	30 e0       	ldi	r19, 0x00	; 0
     430:	40 e0       	ldi	r20, 0x00	; 0
     432:	5f e3       	ldi	r21, 0x3F	; 63
     434:	65 2d       	mov	r22, r5
     436:	73 2d       	mov	r23, r3
     438:	82 2d       	mov	r24, r2
     43a:	94 2d       	mov	r25, r4
     43c:	0e 94 4b 05 	call	0xa96	; 0xa96 <__addsf3>
     440:	c6 2e       	mov	r12, r22
     442:	d7 2e       	mov	r13, r23
     444:	08 2f       	mov	r16, r24
     446:	19 2f       	mov	r17, r25
     448:	0e 94 2e 06 	call	0xc5c	; 0xc5c <__fixsfsi>
     44c:	76 95       	lsr	r23
     44e:	76 2f       	mov	r23, r22
     450:	66 27       	eor	r22, r22
     452:	77 95       	ror	r23
     454:	67 95       	ror	r22
     456:	a6 16       	cp	r10, r22
     458:	b7 06       	cpc	r11, r23
     45a:	39 f5       	brne	.+78     	; 0x4aa <__EEPROM_REGION_LENGTH__+0xaa>
     45c:	f5 e0       	ldi	r31, 0x05	; 5
     45e:	ef 16       	cp	r14, r31
     460:	f1 04       	cpc	r15, r1
     462:	81 f1       	breq	.+96     	; 0x4c4 <__EEPROM_REGION_LENGTH__+0xc4>
     464:	80 e4       	ldi	r24, 0x40	; 64
     466:	0e 94 45 01 	call	0x28a	; 0x28a <GLCD_Command>
     46a:	95 b3       	in	r25, 0x15	; 21
     46c:	88 e0       	ldi	r24, 0x08	; 8
     46e:	89 27       	eor	r24, r25
     470:	85 bb       	out	0x15, r24	; 21
     472:	95 b3       	in	r25, 0x15	; 21
     474:	80 e1       	ldi	r24, 0x10	; 16
     476:	89 27       	eor	r24, r25
     478:	85 bb       	out	0x15, r24	; 21
     47a:	2b 81       	ldd	r18, Y+3	; 0x03
     47c:	3c 81       	ldd	r19, Y+4	; 0x04
     47e:	b9 01       	movw	r22, r18
     480:	80 e0       	ldi	r24, 0x00	; 0
     482:	90 e0       	ldi	r25, 0x00	; 0
     484:	0e 94 64 06 	call	0xcc8	; 0xcc8 <__floatunsisf>
     488:	25 2d       	mov	r18, r5
     48a:	33 2d       	mov	r19, r3
     48c:	42 2d       	mov	r20, r2
     48e:	54 2d       	mov	r21, r4
     490:	0e 94 4b 05 	call	0xa96	; 0xa96 <__addsf3>
     494:	0e 94 35 06 	call	0xc6a	; 0xc6a <__fixunssfsi>
     498:	86 2f       	mov	r24, r22
     49a:	0e 94 45 01 	call	0x28a	; 0x28a <GLCD_Command>
     49e:	5c 2c       	mov	r5, r12
     4a0:	3d 2c       	mov	r3, r13
     4a2:	20 2e       	mov	r2, r16
     4a4:	41 2e       	mov	r4, r17
     4a6:	ba 86       	std	Y+10, r11	; 0x0a
     4a8:	a9 86       	std	Y+9, r10	; 0x09
     4aa:	3f ef       	ldi	r19, 0xFF	; 255
     4ac:	e3 1a       	sub	r14, r19
     4ae:	f3 0a       	sbc	r15, r19
     4b0:	03 c0       	rjmp	.+6      	; 0x4b8 <__EEPROM_REGION_LENGTH__+0xb8>
     4b2:	ee 24       	eor	r14, r14
     4b4:	e3 94       	inc	r14
     4b6:	f1 2c       	mov	r15, r1
     4b8:	96 e0       	ldi	r25, 0x06	; 6
     4ba:	e9 16       	cp	r14, r25
     4bc:	f1 04       	cpc	r15, r1
     4be:	08 f4       	brcc	.+2      	; 0x4c2 <__EEPROM_REGION_LENGTH__+0xc2>
     4c0:	b1 cf       	rjmp	.-158    	; 0x424 <__EEPROM_REGION_LENGTH__+0x24>
     4c2:	00 c0       	rjmp	.+0      	; 0x4c4 <__EEPROM_REGION_LENGTH__+0xc4>
     4c4:	89 85       	ldd	r24, Y+9	; 0x09
     4c6:	9a 85       	ldd	r25, Y+10	; 0x0a
     4c8:	68 16       	cp	r6, r24
     4ca:	79 06       	cpc	r7, r25
     4cc:	08 f4       	brcc	.+2      	; 0x4d0 <__EEPROM_REGION_LENGTH__+0xd0>
     4ce:	e6 c0       	rjmp	.+460    	; 0x69c <__EEPROM_REGION_LENGTH__+0x29c>
     4d0:	f4 01       	movw	r30, r8
     4d2:	80 81       	ld	r24, Z
     4d4:	80 32       	cpi	r24, 0x20	; 32
     4d6:	09 f4       	brne	.+2      	; 0x4da <__EEPROM_REGION_LENGTH__+0xda>
     4d8:	4b c0       	rjmp	.+150    	; 0x570 <__EEPROM_REGION_LENGTH__+0x170>
     4da:	00 e0       	ldi	r16, 0x00	; 0
     4dc:	10 e0       	ldi	r17, 0x00	; 0
     4de:	96 c0       	rjmp	.+300    	; 0x60c <__EEPROM_REGION_LENGTH__+0x20c>
     4e0:	f4 01       	movw	r30, r8
     4e2:	80 81       	ld	r24, Z
     4e4:	90 e0       	ldi	r25, 0x00	; 0
     4e6:	80 97       	sbiw	r24, 0x20	; 32
     4e8:	fc 01       	movw	r30, r24
     4ea:	ee 0f       	add	r30, r30
     4ec:	ff 1f       	adc	r31, r31
     4ee:	ee 0f       	add	r30, r30
     4f0:	ff 1f       	adc	r31, r31
     4f2:	e8 0f       	add	r30, r24
     4f4:	f9 1f       	adc	r31, r25
     4f6:	e0 5a       	subi	r30, 0xA0	; 160
     4f8:	ff 4f       	sbci	r31, 0xFF	; 255
     4fa:	e0 0f       	add	r30, r16
     4fc:	f1 1f       	adc	r31, r17
     4fe:	80 81       	ld	r24, Z
     500:	0e 94 7a 01 	call	0x2f4	; 0x2f4 <GLCD_Data>
     504:	29 85       	ldd	r18, Y+9	; 0x09
     506:	3a 85       	ldd	r19, Y+10	; 0x0a
     508:	2f 5f       	subi	r18, 0xFF	; 255
     50a:	3f 4f       	sbci	r19, 0xFF	; 255
     50c:	3a 87       	std	Y+10, r19	; 0x0a
     50e:	29 87       	std	Y+9, r18	; 0x09
     510:	c9 01       	movw	r24, r18
     512:	8f 73       	andi	r24, 0x3F	; 63
     514:	99 27       	eor	r25, r25
     516:	89 2b       	or	r24, r25
     518:	41 f5       	brne	.+80     	; 0x56a <__EEPROM_REGION_LENGTH__+0x16a>
     51a:	95 b3       	in	r25, 0x15	; 21
     51c:	88 e0       	ldi	r24, 0x08	; 8
     51e:	89 27       	eor	r24, r25
     520:	85 bb       	out	0x15, r24	; 21
     522:	95 b3       	in	r25, 0x15	; 21
     524:	80 e1       	ldi	r24, 0x10	; 16
     526:	89 27       	eor	r24, r25
     528:	85 bb       	out	0x15, r24	; 21
     52a:	eb 81       	ldd	r30, Y+3	; 0x03
     52c:	fc 81       	ldd	r31, Y+4	; 0x04
     52e:	bf 01       	movw	r22, r30
     530:	80 e0       	ldi	r24, 0x00	; 0
     532:	90 e0       	ldi	r25, 0x00	; 0
     534:	0e 94 64 06 	call	0xcc8	; 0xcc8 <__floatunsisf>
     538:	25 2d       	mov	r18, r5
     53a:	33 2d       	mov	r19, r3
     53c:	42 2d       	mov	r20, r2
     53e:	54 2d       	mov	r21, r4
     540:	0e 94 4b 05 	call	0xa96	; 0xa96 <__addsf3>
     544:	0e 94 35 06 	call	0xc6a	; 0xc6a <__fixunssfsi>
     548:	86 2f       	mov	r24, r22
     54a:	0e 94 45 01 	call	0x28a	; 0x28a <GLCD_Command>
     54e:	20 e0       	ldi	r18, 0x00	; 0
     550:	30 e0       	ldi	r19, 0x00	; 0
     552:	40 e0       	ldi	r20, 0x00	; 0
     554:	5f e3       	ldi	r21, 0x3F	; 63
     556:	65 2d       	mov	r22, r5
     558:	73 2d       	mov	r23, r3
     55a:	82 2d       	mov	r24, r2
     55c:	94 2d       	mov	r25, r4
     55e:	0e 94 4b 05 	call	0xa96	; 0xa96 <__addsf3>
     562:	56 2e       	mov	r5, r22
     564:	37 2e       	mov	r3, r23
     566:	28 2e       	mov	r2, r24
     568:	49 2e       	mov	r4, r25
     56a:	0f 5f       	subi	r16, 0xFF	; 255
     56c:	1f 4f       	sbci	r17, 0xFF	; 255
     56e:	02 c0       	rjmp	.+4      	; 0x574 <__EEPROM_REGION_LENGTH__+0x174>
     570:	00 e0       	ldi	r16, 0x00	; 0
     572:	10 e0       	ldi	r17, 0x00	; 0
     574:	05 30       	cpi	r16, 0x05	; 5
     576:	11 05       	cpc	r17, r1
     578:	08 f4       	brcc	.+2      	; 0x57c <__EEPROM_REGION_LENGTH__+0x17c>
     57a:	b2 cf       	rjmp	.-156    	; 0x4e0 <__EEPROM_REGION_LENGTH__+0xe0>
     57c:	7f c0       	rjmp	.+254    	; 0x67c <__EEPROM_REGION_LENGTH__+0x27c>
     57e:	f4 01       	movw	r30, r8
     580:	80 81       	ld	r24, Z
     582:	90 e0       	ldi	r25, 0x00	; 0
     584:	80 97       	sbiw	r24, 0x20	; 32
     586:	fc 01       	movw	r30, r24
     588:	ee 0f       	add	r30, r30
     58a:	ff 1f       	adc	r31, r31
     58c:	ee 0f       	add	r30, r30
     58e:	ff 1f       	adc	r31, r31
     590:	e8 0f       	add	r30, r24
     592:	f9 1f       	adc	r31, r25
     594:	e0 5a       	subi	r30, 0xA0	; 160
     596:	ff 4f       	sbci	r31, 0xFF	; 255
     598:	e0 0f       	add	r30, r16
     59a:	f1 1f       	adc	r31, r17
     59c:	80 81       	ld	r24, Z
     59e:	0e 94 7a 01 	call	0x2f4	; 0x2f4 <GLCD_Data>
     5a2:	29 85       	ldd	r18, Y+9	; 0x09
     5a4:	3a 85       	ldd	r19, Y+10	; 0x0a
     5a6:	2f 5f       	subi	r18, 0xFF	; 255
     5a8:	3f 4f       	sbci	r19, 0xFF	; 255
     5aa:	3a 87       	std	Y+10, r19	; 0x0a
     5ac:	29 87       	std	Y+9, r18	; 0x09
     5ae:	c9 01       	movw	r24, r18
     5b0:	8f 73       	andi	r24, 0x3F	; 63
     5b2:	99 27       	eor	r25, r25
     5b4:	89 2b       	or	r24, r25
     5b6:	41 f5       	brne	.+80     	; 0x608 <__EEPROM_REGION_LENGTH__+0x208>
     5b8:	95 b3       	in	r25, 0x15	; 21
     5ba:	88 e0       	ldi	r24, 0x08	; 8
     5bc:	89 27       	eor	r24, r25
     5be:	85 bb       	out	0x15, r24	; 21
     5c0:	95 b3       	in	r25, 0x15	; 21
     5c2:	80 e1       	ldi	r24, 0x10	; 16
     5c4:	89 27       	eor	r24, r25
     5c6:	85 bb       	out	0x15, r24	; 21
     5c8:	eb 81       	ldd	r30, Y+3	; 0x03
     5ca:	fc 81       	ldd	r31, Y+4	; 0x04
     5cc:	bf 01       	movw	r22, r30
     5ce:	80 e0       	ldi	r24, 0x00	; 0
     5d0:	90 e0       	ldi	r25, 0x00	; 0
     5d2:	0e 94 64 06 	call	0xcc8	; 0xcc8 <__floatunsisf>
     5d6:	25 2d       	mov	r18, r5
     5d8:	33 2d       	mov	r19, r3
     5da:	42 2d       	mov	r20, r2
     5dc:	54 2d       	mov	r21, r4
     5de:	0e 94 4b 05 	call	0xa96	; 0xa96 <__addsf3>
     5e2:	0e 94 35 06 	call	0xc6a	; 0xc6a <__fixunssfsi>
     5e6:	86 2f       	mov	r24, r22
     5e8:	0e 94 45 01 	call	0x28a	; 0x28a <GLCD_Command>
     5ec:	20 e0       	ldi	r18, 0x00	; 0
     5ee:	30 e0       	ldi	r19, 0x00	; 0
     5f0:	40 e0       	ldi	r20, 0x00	; 0
     5f2:	5f e3       	ldi	r21, 0x3F	; 63
     5f4:	65 2d       	mov	r22, r5
     5f6:	73 2d       	mov	r23, r3
     5f8:	82 2d       	mov	r24, r2
     5fa:	94 2d       	mov	r25, r4
     5fc:	0e 94 4b 05 	call	0xa96	; 0xa96 <__addsf3>
     600:	56 2e       	mov	r5, r22
     602:	37 2e       	mov	r3, r23
     604:	28 2e       	mov	r2, r24
     606:	49 2e       	mov	r4, r25
     608:	0f 5f       	subi	r16, 0xFF	; 255
     60a:	1f 4f       	sbci	r17, 0xFF	; 255
     60c:	05 30       	cpi	r16, 0x05	; 5
     60e:	11 05       	cpc	r17, r1
     610:	08 f4       	brcc	.+2      	; 0x614 <__EEPROM_REGION_LENGTH__+0x214>
     612:	b5 cf       	rjmp	.-150    	; 0x57e <__EEPROM_REGION_LENGTH__+0x17e>
     614:	80 e0       	ldi	r24, 0x00	; 0
     616:	0e 94 7a 01 	call	0x2f4	; 0x2f4 <GLCD_Data>
     61a:	89 85       	ldd	r24, Y+9	; 0x09
     61c:	9a 85       	ldd	r25, Y+10	; 0x0a
     61e:	01 96       	adiw	r24, 0x01	; 1
     620:	9a 87       	std	Y+10, r25	; 0x0a
     622:	89 87       	std	Y+9, r24	; 0x09
     624:	8f 73       	andi	r24, 0x3F	; 63
     626:	99 27       	eor	r25, r25
     628:	89 2b       	or	r24, r25
     62a:	41 f5       	brne	.+80     	; 0x67c <__EEPROM_REGION_LENGTH__+0x27c>
     62c:	95 b3       	in	r25, 0x15	; 21
     62e:	88 e0       	ldi	r24, 0x08	; 8
     630:	89 27       	eor	r24, r25
     632:	85 bb       	out	0x15, r24	; 21
     634:	95 b3       	in	r25, 0x15	; 21
     636:	80 e1       	ldi	r24, 0x10	; 16
     638:	89 27       	eor	r24, r25
     63a:	85 bb       	out	0x15, r24	; 21
     63c:	eb 81       	ldd	r30, Y+3	; 0x03
     63e:	fc 81       	ldd	r31, Y+4	; 0x04
     640:	bf 01       	movw	r22, r30
     642:	80 e0       	ldi	r24, 0x00	; 0
     644:	90 e0       	ldi	r25, 0x00	; 0
     646:	0e 94 64 06 	call	0xcc8	; 0xcc8 <__floatunsisf>
     64a:	25 2d       	mov	r18, r5
     64c:	33 2d       	mov	r19, r3
     64e:	42 2d       	mov	r20, r2
     650:	54 2d       	mov	r21, r4
     652:	0e 94 4b 05 	call	0xa96	; 0xa96 <__addsf3>
     656:	0e 94 35 06 	call	0xc6a	; 0xc6a <__fixunssfsi>
     65a:	86 2f       	mov	r24, r22
     65c:	0e 94 45 01 	call	0x28a	; 0x28a <GLCD_Command>
     660:	20 e0       	ldi	r18, 0x00	; 0
     662:	30 e0       	ldi	r19, 0x00	; 0
     664:	40 e0       	ldi	r20, 0x00	; 0
     666:	5f e3       	ldi	r21, 0x3F	; 63
     668:	65 2d       	mov	r22, r5
     66a:	73 2d       	mov	r23, r3
     66c:	82 2d       	mov	r24, r2
     66e:	94 2d       	mov	r25, r4
     670:	0e 94 4b 05 	call	0xa96	; 0xa96 <__addsf3>
     674:	56 2e       	mov	r5, r22
     676:	37 2e       	mov	r3, r23
     678:	28 2e       	mov	r2, r24
     67a:	49 2e       	mov	r4, r25
     67c:	29 81       	ldd	r18, Y+1	; 0x01
     67e:	3a 81       	ldd	r19, Y+2	; 0x02
     680:	2f 5f       	subi	r18, 0xFF	; 255
     682:	3f 4f       	sbci	r19, 0xFF	; 255
     684:	3a 83       	std	Y+2, r19	; 0x02
     686:	29 83       	std	Y+1, r18	; 0x01
     688:	8f 80       	ldd	r8, Y+7	; 0x07
     68a:	98 84       	ldd	r9, Y+8	; 0x08
     68c:	89 81       	ldd	r24, Y+1	; 0x01
     68e:	9a 81       	ldd	r25, Y+2	; 0x02
     690:	88 0e       	add	r8, r24
     692:	99 1e       	adc	r9, r25
     694:	f4 01       	movw	r30, r8
     696:	80 81       	ld	r24, Z
     698:	81 11       	cpse	r24, r1
     69a:	ac ce       	rjmp	.-680    	; 0x3f4 <GLCD_String+0x84>
     69c:	80 e4       	ldi	r24, 0x40	; 64
     69e:	0e 94 45 01 	call	0x28a	; 0x28a <GLCD_Command>
     6a2:	2a 96       	adiw	r28, 0x0a	; 10
     6a4:	0f b6       	in	r0, 0x3f	; 63
     6a6:	f8 94       	cli
     6a8:	de bf       	out	0x3e, r29	; 62
     6aa:	0f be       	out	0x3f, r0	; 63
     6ac:	cd bf       	out	0x3d, r28	; 61
     6ae:	df 91       	pop	r29
     6b0:	cf 91       	pop	r28
     6b2:	1f 91       	pop	r17
     6b4:	0f 91       	pop	r16
     6b6:	ff 90       	pop	r15
     6b8:	ef 90       	pop	r14
     6ba:	df 90       	pop	r13
     6bc:	cf 90       	pop	r12
     6be:	bf 90       	pop	r11
     6c0:	af 90       	pop	r10
     6c2:	9f 90       	pop	r9
     6c4:	8f 90       	pop	r8
     6c6:	7f 90       	pop	r7
     6c8:	6f 90       	pop	r6
     6ca:	5f 90       	pop	r5
     6cc:	4f 90       	pop	r4
     6ce:	3f 90       	pop	r3
     6d0:	2f 90       	pop	r2
     6d2:	08 95       	ret

000006d4 <main>:

int main(void)
{
	/* Internal PWM SIGNAl */
	
    PWM_Drawer_internal_init(Timer0FastPWM,ClockValue_2000KHZ,70);
     6d4:	46 e4       	ldi	r20, 0x46	; 70
     6d6:	62 e0       	ldi	r22, 0x02	; 2
     6d8:	88 e6       	ldi	r24, 0x68	; 104
     6da:	0e 94 49 00 	call	0x92	; 0x92 <PWM_Drawer_internal_init>
	
	//PWM_Drawer_external_init();
	
    while (1) 
    {
		PWM_Get_Signal();	//Signal measurement
     6de:	0e 94 42 01 	call	0x284	; 0x284 <PWM_Get_Signal>
		PWM_Draw_Signal();	//Sign drawing
     6e2:	0e 94 5e 00 	call	0xbc	; 0xbc <PWM_Draw_Signal>
     6e6:	fb cf       	rjmp	.-10     	; 0x6de <main+0xa>

000006e8 <Time2String>:
     6e8:	cf 92       	push	r12
     6ea:	df 92       	push	r13
     6ec:	ef 92       	push	r14
     6ee:	ff 92       	push	r15
     6f0:	0f 93       	push	r16
     6f2:	1f 93       	push	r17
     6f4:	cf 93       	push	r28
     6f6:	df 93       	push	r29
     6f8:	cd b7       	in	r28, 0x3d	; 61
     6fa:	de b7       	in	r29, 0x3e	; 62
     6fc:	c3 57       	subi	r28, 0x73	; 115
     6fe:	d1 09       	sbc	r29, r1
     700:	0f b6       	in	r0, 0x3f	; 63
     702:	f8 94       	cli
     704:	de bf       	out	0x3e, r29	; 62
     706:	0f be       	out	0x3f, r0	; 63
     708:	cd bf       	out	0x3d, r28	; 61
     70a:	6b 01       	movw	r12, r22
     70c:	7c 01       	movw	r14, r24
     70e:	00 e0       	ldi	r16, 0x00	; 0
     710:	10 e0       	ldi	r17, 0x00	; 0
     712:	0c c0       	rjmp	.+24     	; 0x72c <Time2String+0x44>
     714:	20 e0       	ldi	r18, 0x00	; 0
     716:	30 e0       	ldi	r19, 0x00	; 0
     718:	40 e2       	ldi	r20, 0x20	; 32
     71a:	51 e4       	ldi	r21, 0x41	; 65
     71c:	c7 01       	movw	r24, r14
     71e:	b6 01       	movw	r22, r12
     720:	0e 94 16 07 	call	0xe2c	; 0xe2c <__mulsf3>
     724:	6b 01       	movw	r12, r22
     726:	7c 01       	movw	r14, r24
     728:	0f 5f       	subi	r16, 0xFF	; 255
     72a:	1f 4f       	sbci	r17, 0xFF	; 255
     72c:	20 e0       	ldi	r18, 0x00	; 0
     72e:	30 e0       	ldi	r19, 0x00	; 0
     730:	40 e8       	ldi	r20, 0x80	; 128
     732:	5f e3       	ldi	r21, 0x3F	; 63
     734:	c7 01       	movw	r24, r14
     736:	b6 01       	movw	r22, r12
     738:	0e 94 b7 05 	call	0xb6e	; 0xb6e <__cmpsf2>
     73c:	88 23       	and	r24, r24
     73e:	54 f3       	brlt	.-44     	; 0x714 <Time2String+0x2c>
     740:	20 e0       	ldi	r18, 0x00	; 0
     742:	30 e0       	ldi	r19, 0x00	; 0
     744:	40 e2       	ldi	r20, 0x20	; 32
     746:	51 e4       	ldi	r21, 0x41	; 65
     748:	c7 01       	movw	r24, r14
     74a:	b6 01       	movw	r22, r12
     74c:	0e 94 16 07 	call	0xe2c	; 0xe2c <__mulsf3>
     750:	0e 94 2e 06 	call	0xc5c	; 0xc5c <__fixsfsi>
    } else if (__radix < 2 || __radix > 36) {
	*__s = 0;
	return __s;
    } else {
	extern char *__ltoa_ncheck (long, char *, unsigned char);
	return __ltoa_ncheck (__val, __s, __radix);
     754:	2a e0       	ldi	r18, 0x0A	; 10
     756:	ae 01       	movw	r20, r28
     758:	4f 5f       	subi	r20, 0xFF	; 255
     75a:	5f 4f       	sbci	r21, 0xFF	; 255
     75c:	0e 94 d8 07 	call	0xfb0	; 0xfb0 <__ltoa_ncheck>
     760:	1c 86       	std	Y+12, r1	; 0x0c
     762:	1b 86       	std	Y+11, r1	; 0x0b
     764:	fe 01       	movw	r30, r28
     766:	3d 96       	adiw	r30, 0x0d	; 13
     768:	82 e6       	ldi	r24, 0x62	; 98
     76a:	df 01       	movw	r26, r30
     76c:	1d 92       	st	X+, r1
     76e:	8a 95       	dec	r24
     770:	e9 f7       	brne	.-6      	; 0x76c <Time2String+0x84>
     772:	8d e6       	ldi	r24, 0x6D	; 109
     774:	93 e7       	ldi	r25, 0x73	; 115
     776:	e1 96       	adiw	r28, 0x31	; 49
     778:	9f af       	std	Y+63, r25	; 0x3f
     77a:	8e af       	std	Y+62, r24	; 0x3e
     77c:	e1 97       	sbiw	r28, 0x31	; 49
     77e:	e3 96       	adiw	r28, 0x33	; 51
     780:	1f ae       	std	Y+63, r1	; 0x3f
     782:	1e ae       	std	Y+62, r1	; 0x3e
     784:	e3 97       	sbiw	r28, 0x33	; 51
     786:	e4 96       	adiw	r28, 0x34	; 52
     788:	1f ae       	std	Y+63, r1	; 0x3f
     78a:	e4 97       	sbiw	r28, 0x34	; 52
     78c:	32 97       	sbiw	r30, 0x02	; 2
     78e:	01 90       	ld	r0, Z+
     790:	00 20       	and	r0, r0
     792:	e9 f7       	brne	.-6      	; 0x78e <Time2String+0xa6>
     794:	31 97       	sbiw	r30, 0x01	; 1
     796:	80 e3       	ldi	r24, 0x30	; 48
     798:	9e e2       	ldi	r25, 0x2E	; 46
     79a:	91 83       	std	Z+1, r25	; 0x01
     79c:	80 83       	st	Z, r24
     79e:	12 82       	std	Z+2, r1	; 0x02
     7a0:	80 e0       	ldi	r24, 0x00	; 0
     7a2:	90 e0       	ldi	r25, 0x00	; 0
     7a4:	0b c0       	rjmp	.+22     	; 0x7bc <Time2String+0xd4>
     7a6:	fe 01       	movw	r30, r28
     7a8:	3b 96       	adiw	r30, 0x0b	; 11
     7aa:	01 90       	ld	r0, Z+
     7ac:	00 20       	and	r0, r0
     7ae:	e9 f7       	brne	.-6      	; 0x7aa <Time2String+0xc2>
     7b0:	31 97       	sbiw	r30, 0x01	; 1
     7b2:	20 e3       	ldi	r18, 0x30	; 48
     7b4:	30 e0       	ldi	r19, 0x00	; 0
     7b6:	31 83       	std	Z+1, r19	; 0x01
     7b8:	20 83       	st	Z, r18
     7ba:	01 96       	adiw	r24, 0x01	; 1
     7bc:	98 01       	movw	r18, r16
     7be:	21 50       	subi	r18, 0x01	; 1
     7c0:	31 09       	sbc	r19, r1
     7c2:	82 17       	cp	r24, r18
     7c4:	93 07       	cpc	r25, r19
     7c6:	7c f3       	brlt	.-34     	; 0x7a6 <Time2String+0xbe>
     7c8:	be 01       	movw	r22, r28
     7ca:	6f 5f       	subi	r22, 0xFF	; 255
     7cc:	7f 4f       	sbci	r23, 0xFF	; 255
     7ce:	ce 01       	movw	r24, r28
     7d0:	0b 96       	adiw	r24, 0x0b	; 11
     7d2:	0e 94 cd 07 	call	0xf9a	; 0xf9a <strcat>
     7d6:	be 01       	movw	r22, r28
     7d8:	61 59       	subi	r22, 0x91	; 145
     7da:	7f 4f       	sbci	r23, 0xFF	; 255
     7dc:	ce 01       	movw	r24, r28
     7de:	0b 96       	adiw	r24, 0x0b	; 11
     7e0:	0e 94 cd 07 	call	0xf9a	; 0xf9a <strcat>
     7e4:	40 e0       	ldi	r20, 0x00	; 0
     7e6:	be 01       	movw	r22, r28
     7e8:	65 5f       	subi	r22, 0xF5	; 245
     7ea:	7f 4f       	sbci	r23, 0xFF	; 255
     7ec:	84 e0       	ldi	r24, 0x04	; 4
     7ee:	0e 94 b8 01 	call	0x370	; 0x370 <GLCD_String>
     7f2:	cd 58       	subi	r28, 0x8D	; 141
     7f4:	df 4f       	sbci	r29, 0xFF	; 255
     7f6:	0f b6       	in	r0, 0x3f	; 63
     7f8:	f8 94       	cli
     7fa:	de bf       	out	0x3e, r29	; 62
     7fc:	0f be       	out	0x3f, r0	; 63
     7fe:	cd bf       	out	0x3d, r28	; 61
     800:	df 91       	pop	r29
     802:	cf 91       	pop	r28
     804:	1f 91       	pop	r17
     806:	0f 91       	pop	r16
     808:	ff 90       	pop	r15
     80a:	ef 90       	pop	r14
     80c:	df 90       	pop	r13
     80e:	cf 90       	pop	r12
     810:	08 95       	ret

00000812 <ICU_GetPWM>:
     812:	4f 92       	push	r4
     814:	5f 92       	push	r5
     816:	6f 92       	push	r6
     818:	7f 92       	push	r7
     81a:	8f 92       	push	r8
     81c:	9f 92       	push	r9
     81e:	af 92       	push	r10
     820:	bf 92       	push	r11
     822:	cf 92       	push	r12
     824:	df 92       	push	r13
     826:	ef 92       	push	r14
     828:	ff 92       	push	r15
     82a:	0f 93       	push	r16
     82c:	1f 93       	push	r17
     82e:	cf 93       	push	r28
     830:	df 93       	push	r29
     832:	cd b7       	in	r28, 0x3d	; 61
     834:	de b7       	in	r29, 0x3e	; 62
     836:	ce 57       	subi	r28, 0x7E	; 126
     838:	d1 09       	sbc	r29, r1
     83a:	0f b6       	in	r0, 0x3f	; 63
     83c:	f8 94       	cli
     83e:	de bf       	out	0x3e, r29	; 62
     840:	0f be       	out	0x3f, r0	; 63
     842:	cd bf       	out	0x3d, r28	; 61
     844:	fe 01       	movw	r30, r28
     846:	31 96       	adiw	r30, 0x01	; 1
     848:	87 e0       	ldi	r24, 0x07	; 7
     84a:	df 01       	movw	r26, r30
     84c:	1d 92       	st	X+, r1
     84e:	8a 95       	dec	r24
     850:	e9 f7       	brne	.-6      	; 0x84c <ICU_GetPWM+0x3a>
     852:	37 96       	adiw	r30, 0x07	; 7
     854:	8e e0       	ldi	r24, 0x0E	; 14
     856:	df 01       	movw	r26, r30
     858:	1d 92       	st	X+, r1
     85a:	8a 95       	dec	r24
     85c:	e9 f7       	brne	.-6      	; 0x858 <ICU_GetPWM+0x46>
     85e:	1f bc       	out	0x2f, r1	; 47
     860:	1d bc       	out	0x2d, r1	; 45
     862:	1c bc       	out	0x2c, r1	; 44
     864:	80 e2       	ldi	r24, 0x20	; 32
     866:	88 bf       	out	0x38, r24	; 56
     868:	81 ec       	ldi	r24, 0xC1	; 193
     86a:	8e bd       	out	0x2e, r24	; 46
     86c:	08 b6       	in	r0, 0x38	; 56
     86e:	05 fe       	sbrs	r0, 5
     870:	fd cf       	rjmp	.-6      	; 0x86c <__stack+0xd>
     872:	86 b5       	in	r24, 0x26	; 38
     874:	97 b5       	in	r25, 0x27	; 39
     876:	20 e2       	ldi	r18, 0x20	; 32
     878:	28 bf       	out	0x38, r18	; 56
     87a:	21 ec       	ldi	r18, 0xC1	; 193
     87c:	2e bd       	out	0x2e, r18	; 46
     87e:	08 b6       	in	r0, 0x38	; 56
     880:	05 fe       	sbrs	r0, 5
     882:	fd cf       	rjmp	.-6      	; 0x87e <__stack+0x1f>
     884:	c6 b4       	in	r12, 0x26	; 38
     886:	d7 b4       	in	r13, 0x27	; 39
     888:	20 e2       	ldi	r18, 0x20	; 32
     88a:	28 bf       	out	0x38, r18	; 56
     88c:	21 e8       	ldi	r18, 0x81	; 129
     88e:	2e bd       	out	0x2e, r18	; 46
     890:	08 b6       	in	r0, 0x38	; 56
     892:	05 fe       	sbrs	r0, 5
     894:	fd cf       	rjmp	.-6      	; 0x890 <__stack+0x31>
     896:	06 b5       	in	r16, 0x26	; 38
     898:	17 b5       	in	r17, 0x27	; 39
     89a:	20 e2       	ldi	r18, 0x20	; 32
     89c:	28 bf       	out	0x38, r18	; 56
     89e:	1e bc       	out	0x2e, r1	; 46
     8a0:	8c 15       	cp	r24, r12
     8a2:	9d 05       	cpc	r25, r13
     8a4:	08 f0       	brcs	.+2      	; 0x8a8 <__stack+0x49>
     8a6:	ad c0       	rjmp	.+346    	; 0xa02 <__stack+0x1a3>
     8a8:	c0 16       	cp	r12, r16
     8aa:	d1 06       	cpc	r13, r17
     8ac:	08 f0       	brcs	.+2      	; 0x8b0 <__stack+0x51>
     8ae:	a9 c0       	rjmp	.+338    	; 0xa02 <__stack+0x1a3>
     8b0:	0c 19       	sub	r16, r12
     8b2:	1d 09       	sbc	r17, r13
     8b4:	c8 1a       	sub	r12, r24
     8b6:	d9 0a       	sbc	r13, r25
     8b8:	e1 2c       	mov	r14, r1
     8ba:	f1 2c       	mov	r15, r1
     8bc:	60 e0       	ldi	r22, 0x00	; 0
     8be:	74 e2       	ldi	r23, 0x24	; 36
     8c0:	84 ef       	ldi	r24, 0xF4	; 244
     8c2:	90 e0       	ldi	r25, 0x00	; 0
     8c4:	a7 01       	movw	r20, r14
     8c6:	96 01       	movw	r18, r12
     8c8:	0e 94 97 07 	call	0xf2e	; 0xf2e <__udivmodsi4>
     8cc:	ca 01       	movw	r24, r20
     8ce:	b9 01       	movw	r22, r18
     8d0:	28 ee       	ldi	r18, 0xE8	; 232
     8d2:	33 e0       	ldi	r19, 0x03	; 3
     8d4:	40 e0       	ldi	r20, 0x00	; 0
     8d6:	50 e0       	ldi	r21, 0x00	; 0
     8d8:	0e 94 97 07 	call	0xf2e	; 0xf2e <__udivmodsi4>
     8dc:	49 01       	movw	r8, r18
     8de:	5a 01       	movw	r10, r20
     8e0:	b8 01       	movw	r22, r16
     8e2:	80 e0       	ldi	r24, 0x00	; 0
     8e4:	90 e0       	ldi	r25, 0x00	; 0
     8e6:	0e 94 64 06 	call	0xcc8	; 0xcc8 <__floatunsisf>
     8ea:	2b 01       	movw	r4, r22
     8ec:	3c 01       	movw	r6, r24
     8ee:	c7 01       	movw	r24, r14
     8f0:	b6 01       	movw	r22, r12
     8f2:	0e 94 64 06 	call	0xcc8	; 0xcc8 <__floatunsisf>
     8f6:	9b 01       	movw	r18, r22
     8f8:	ac 01       	movw	r20, r24
     8fa:	c3 01       	movw	r24, r6
     8fc:	b2 01       	movw	r22, r4
     8fe:	0e 94 bc 05 	call	0xb78	; 0xb78 <__divsf3>
     902:	20 e0       	ldi	r18, 0x00	; 0
     904:	30 e0       	ldi	r19, 0x00	; 0
     906:	48 ec       	ldi	r20, 0xC8	; 200
     908:	52 e4       	ldi	r21, 0x42	; 66
     90a:	0e 94 16 07 	call	0xe2c	; 0xe2c <__mulsf3>
     90e:	0e 94 2e 06 	call	0xc5c	; 0xc5c <__fixsfsi>
     912:	70 93 bf 02 	sts	0x02BF, r23	; 0x8002bf <__data_end+0x1>
     916:	60 93 be 02 	sts	0x02BE, r22	; 0x8002be <__data_end>
     91a:	c5 01       	movw	r24, r10
     91c:	b4 01       	movw	r22, r8
     91e:	0e 94 64 06 	call	0xcc8	; 0xcc8 <__floatunsisf>
     922:	9b 01       	movw	r18, r22
     924:	ac 01       	movw	r20, r24
     926:	60 e0       	ldi	r22, 0x00	; 0
     928:	70 e0       	ldi	r23, 0x00	; 0
     92a:	80 e8       	ldi	r24, 0x80	; 128
     92c:	9f e3       	ldi	r25, 0x3F	; 63
     92e:	0e 94 bc 05 	call	0xb78	; 0xb78 <__divsf3>
     932:	6b 01       	movw	r12, r22
     934:	7c 01       	movw	r14, r24
     936:	2a e0       	ldi	r18, 0x0A	; 10
     938:	ae 01       	movw	r20, r28
     93a:	48 5f       	subi	r20, 0xF8	; 248
     93c:	5f 4f       	sbci	r21, 0xFF	; 255
     93e:	c5 01       	movw	r24, r10
     940:	b4 01       	movw	r22, r8
     942:	0e 94 d8 07 	call	0xfb0	; 0xfb0 <__ltoa_ncheck>
     946:	86 e0       	ldi	r24, 0x06	; 6
     948:	e0 e4       	ldi	r30, 0x40	; 64
     94a:	f2 e0       	ldi	r31, 0x02	; 2
     94c:	de 01       	movw	r26, r28
     94e:	56 96       	adiw	r26, 0x16	; 22
     950:	01 90       	ld	r0, Z+
     952:	0d 92       	st	X+, r0
     954:	8a 95       	dec	r24
     956:	e1 f7       	brne	.-8      	; 0x950 <__stack+0xf1>
     958:	fe 01       	movw	r30, r28
     95a:	7c 96       	adiw	r30, 0x1c	; 28
     95c:	8e e5       	ldi	r24, 0x5E	; 94
     95e:	df 01       	movw	r26, r30
     960:	1d 92       	st	X+, r1
     962:	8a 95       	dec	r24
     964:	e9 f7       	brne	.-6      	; 0x960 <__stack+0x101>
     966:	8b e4       	ldi	r24, 0x4B	; 75
     968:	98 e6       	ldi	r25, 0x68	; 104
     96a:	ec 96       	adiw	r28, 0x3c	; 60
     96c:	9f af       	std	Y+63, r25	; 0x3f
     96e:	8e af       	std	Y+62, r24	; 0x3e
     970:	ec 97       	sbiw	r28, 0x3c	; 60
     972:	8a e7       	ldi	r24, 0x7A	; 122
     974:	90 e0       	ldi	r25, 0x00	; 0
     976:	ee 96       	adiw	r28, 0x3e	; 62
     978:	9f af       	std	Y+63, r25	; 0x3f
     97a:	8e af       	std	Y+62, r24	; 0x3e
     97c:	ee 97       	sbiw	r28, 0x3e	; 62
     97e:	ef 96       	adiw	r28, 0x3f	; 63
     980:	1f ae       	std	Y+63, r1	; 0x3f
     982:	ef 97       	sbiw	r28, 0x3f	; 63
     984:	be 01       	movw	r22, r28
     986:	68 5f       	subi	r22, 0xF8	; 248
     988:	7f 4f       	sbci	r23, 0xFF	; 255
     98a:	ce 01       	movw	r24, r28
     98c:	46 96       	adiw	r24, 0x16	; 22
     98e:	0e 94 cd 07 	call	0xf9a	; 0xf9a <strcat>
     992:	be 01       	movw	r22, r28
     994:	66 58       	subi	r22, 0x86	; 134
     996:	7f 4f       	sbci	r23, 0xFF	; 255
     998:	ce 01       	movw	r24, r28
     99a:	46 96       	adiw	r24, 0x16	; 22
     99c:	0e 94 cd 07 	call	0xf9a	; 0xf9a <strcat>
     9a0:	40 e0       	ldi	r20, 0x00	; 0
     9a2:	be 01       	movw	r22, r28
     9a4:	6a 5e       	subi	r22, 0xEA	; 234
     9a6:	7f 4f       	sbci	r23, 0xFF	; 255
     9a8:	81 e0       	ldi	r24, 0x01	; 1
     9aa:	0e 94 b8 01 	call	0x370	; 0x370 <GLCD_String>
     9ae:	80 91 bf 02 	lds	r24, 0x02BF	; 0x8002bf <__data_end+0x1>
     9b2:	8f 93       	push	r24
     9b4:	80 91 be 02 	lds	r24, 0x02BE	; 0x8002be <__data_end>
     9b8:	8f 93       	push	r24
     9ba:	84 ea       	ldi	r24, 0xA4	; 164
     9bc:	92 e0       	ldi	r25, 0x02	; 2
     9be:	9f 93       	push	r25
     9c0:	8f 93       	push	r24
     9c2:	8e 01       	movw	r16, r28
     9c4:	0f 5f       	subi	r16, 0xFF	; 255
     9c6:	1f 4f       	sbci	r17, 0xFF	; 255
     9c8:	1f 93       	push	r17
     9ca:	0f 93       	push	r16
     9cc:	0e 94 09 08 	call	0x1012	; 0x1012 <sprintf>
     9d0:	f8 01       	movw	r30, r16
     9d2:	01 90       	ld	r0, Z+
     9d4:	00 20       	and	r0, r0
     9d6:	e9 f7       	brne	.-6      	; 0x9d2 <__stack+0x173>
     9d8:	31 97       	sbiw	r30, 0x01	; 1
     9da:	85 e2       	ldi	r24, 0x25	; 37
     9dc:	90 e0       	ldi	r25, 0x00	; 0
     9de:	91 83       	std	Z+1, r25	; 0x01
     9e0:	80 83       	st	Z, r24
     9e2:	41 e0       	ldi	r20, 0x01	; 1
     9e4:	b8 01       	movw	r22, r16
     9e6:	81 e0       	ldi	r24, 0x01	; 1
     9e8:	0e 94 b8 01 	call	0x370	; 0x370 <GLCD_String>
     9ec:	c7 01       	movw	r24, r14
     9ee:	b6 01       	movw	r22, r12
     9f0:	0e 94 74 03 	call	0x6e8	; 0x6e8 <Time2String>
     9f4:	0f 90       	pop	r0
     9f6:	0f 90       	pop	r0
     9f8:	0f 90       	pop	r0
     9fa:	0f 90       	pop	r0
     9fc:	0f 90       	pop	r0
     9fe:	0f 90       	pop	r0
     a00:	08 c0       	rjmp	.+16     	; 0xa12 <__stack+0x1b3>
     a02:	0e 94 90 01 	call	0x320	; 0x320 <GLCD_ClearAll>
     a06:	40 e0       	ldi	r20, 0x00	; 0
     a08:	6f ea       	ldi	r22, 0xAF	; 175
     a0a:	72 e0       	ldi	r23, 0x02	; 2
     a0c:	81 e0       	ldi	r24, 0x01	; 1
     a0e:	0e 94 b8 01 	call	0x370	; 0x370 <GLCD_String>
	#else
		//round up by default
		__ticks_dc = (uint32_t)(ceil(fabs(__tmp)));
	#endif

	__builtin_avr_delay_cycles(__ticks_dc);
     a12:	bf ef       	ldi	r27, 0xFF	; 255
     a14:	20 e7       	ldi	r18, 0x70	; 112
     a16:	82 e0       	ldi	r24, 0x02	; 2
     a18:	b1 50       	subi	r27, 0x01	; 1
     a1a:	20 40       	sbci	r18, 0x00	; 0
     a1c:	80 40       	sbci	r24, 0x00	; 0
     a1e:	e1 f7       	brne	.-8      	; 0xa18 <__stack+0x1b9>
     a20:	00 c0       	rjmp	.+0      	; 0xa22 <__stack+0x1c3>
     a22:	00 00       	nop
     a24:	c2 58       	subi	r28, 0x82	; 130
     a26:	df 4f       	sbci	r29, 0xFF	; 255
     a28:	0f b6       	in	r0, 0x3f	; 63
     a2a:	f8 94       	cli
     a2c:	de bf       	out	0x3e, r29	; 62
     a2e:	0f be       	out	0x3f, r0	; 63
     a30:	cd bf       	out	0x3d, r28	; 61
     a32:	df 91       	pop	r29
     a34:	cf 91       	pop	r28
     a36:	1f 91       	pop	r17
     a38:	0f 91       	pop	r16
     a3a:	ff 90       	pop	r15
     a3c:	ef 90       	pop	r14
     a3e:	df 90       	pop	r13
     a40:	cf 90       	pop	r12
     a42:	bf 90       	pop	r11
     a44:	af 90       	pop	r10
     a46:	9f 90       	pop	r9
     a48:	8f 90       	pop	r8
     a4a:	7f 90       	pop	r7
     a4c:	6f 90       	pop	r6
     a4e:	5f 90       	pop	r5
     a50:	4f 90       	pop	r4
     a52:	08 95       	ret

00000a54 <PWM_Start>:
     a54:	97 b3       	in	r25, 0x17	; 23
     a56:	98 60       	ori	r25, 0x08	; 8
     a58:	97 bb       	out	0x17, r25	; 23
     a5a:	93 b7       	in	r25, 0x33	; 51
     a5c:	89 2b       	or	r24, r25
     a5e:	83 bf       	out	0x33, r24	; 51
     a60:	83 b7       	in	r24, 0x33	; 51
     a62:	68 2b       	or	r22, r24
     a64:	63 bf       	out	0x33, r22	; 51
     a66:	08 95       	ret

00000a68 <PWM_SetDuty>:
     a68:	68 2f       	mov	r22, r24
     a6a:	70 e0       	ldi	r23, 0x00	; 0
     a6c:	80 e0       	ldi	r24, 0x00	; 0
     a6e:	90 e0       	ldi	r25, 0x00	; 0
     a70:	0e 94 64 06 	call	0xcc8	; 0xcc8 <__floatunsisf>
     a74:	20 e0       	ldi	r18, 0x00	; 0
     a76:	30 e0       	ldi	r19, 0x00	; 0
     a78:	48 ec       	ldi	r20, 0xC8	; 200
     a7a:	52 e4       	ldi	r21, 0x42	; 66
     a7c:	0e 94 bc 05 	call	0xb78	; 0xb78 <__divsf3>
     a80:	20 e0       	ldi	r18, 0x00	; 0
     a82:	30 e0       	ldi	r19, 0x00	; 0
     a84:	4f e7       	ldi	r20, 0x7F	; 127
     a86:	53 e4       	ldi	r21, 0x43	; 67
     a88:	0e 94 16 07 	call	0xe2c	; 0xe2c <__mulsf3>
     a8c:	0e 94 35 06 	call	0xc6a	; 0xc6a <__fixunssfsi>
     a90:	6c bf       	out	0x3c, r22	; 60
     a92:	08 95       	ret

00000a94 <__subsf3>:
     a94:	50 58       	subi	r21, 0x80	; 128

00000a96 <__addsf3>:
     a96:	bb 27       	eor	r27, r27
     a98:	aa 27       	eor	r26, r26
     a9a:	0e 94 62 05 	call	0xac4	; 0xac4 <__addsf3x>
     a9e:	0c 94 dc 06 	jmp	0xdb8	; 0xdb8 <__fp_round>
     aa2:	0e 94 ce 06 	call	0xd9c	; 0xd9c <__fp_pscA>
     aa6:	38 f0       	brcs	.+14     	; 0xab6 <__addsf3+0x20>
     aa8:	0e 94 d5 06 	call	0xdaa	; 0xdaa <__fp_pscB>
     aac:	20 f0       	brcs	.+8      	; 0xab6 <__addsf3+0x20>
     aae:	39 f4       	brne	.+14     	; 0xabe <__addsf3+0x28>
     ab0:	9f 3f       	cpi	r25, 0xFF	; 255
     ab2:	19 f4       	brne	.+6      	; 0xaba <__addsf3+0x24>
     ab4:	26 f4       	brtc	.+8      	; 0xabe <__addsf3+0x28>
     ab6:	0c 94 cb 06 	jmp	0xd96	; 0xd96 <__fp_nan>
     aba:	0e f4       	brtc	.+2      	; 0xabe <__addsf3+0x28>
     abc:	e0 95       	com	r30
     abe:	e7 fb       	bst	r30, 7
     ac0:	0c 94 c5 06 	jmp	0xd8a	; 0xd8a <__fp_inf>

00000ac4 <__addsf3x>:
     ac4:	e9 2f       	mov	r30, r25
     ac6:	0e 94 ed 06 	call	0xdda	; 0xdda <__fp_split3>
     aca:	58 f3       	brcs	.-42     	; 0xaa2 <__addsf3+0xc>
     acc:	ba 17       	cp	r27, r26
     ace:	62 07       	cpc	r22, r18
     ad0:	73 07       	cpc	r23, r19
     ad2:	84 07       	cpc	r24, r20
     ad4:	95 07       	cpc	r25, r21
     ad6:	20 f0       	brcs	.+8      	; 0xae0 <__addsf3x+0x1c>
     ad8:	79 f4       	brne	.+30     	; 0xaf8 <__addsf3x+0x34>
     ada:	a6 f5       	brtc	.+104    	; 0xb44 <__addsf3x+0x80>
     adc:	0c 94 0f 07 	jmp	0xe1e	; 0xe1e <__fp_zero>
     ae0:	0e f4       	brtc	.+2      	; 0xae4 <__addsf3x+0x20>
     ae2:	e0 95       	com	r30
     ae4:	0b 2e       	mov	r0, r27
     ae6:	ba 2f       	mov	r27, r26
     ae8:	a0 2d       	mov	r26, r0
     aea:	0b 01       	movw	r0, r22
     aec:	b9 01       	movw	r22, r18
     aee:	90 01       	movw	r18, r0
     af0:	0c 01       	movw	r0, r24
     af2:	ca 01       	movw	r24, r20
     af4:	a0 01       	movw	r20, r0
     af6:	11 24       	eor	r1, r1
     af8:	ff 27       	eor	r31, r31
     afa:	59 1b       	sub	r21, r25
     afc:	99 f0       	breq	.+38     	; 0xb24 <__addsf3x+0x60>
     afe:	59 3f       	cpi	r21, 0xF9	; 249
     b00:	50 f4       	brcc	.+20     	; 0xb16 <__addsf3x+0x52>
     b02:	50 3e       	cpi	r21, 0xE0	; 224
     b04:	68 f1       	brcs	.+90     	; 0xb60 <__addsf3x+0x9c>
     b06:	1a 16       	cp	r1, r26
     b08:	f0 40       	sbci	r31, 0x00	; 0
     b0a:	a2 2f       	mov	r26, r18
     b0c:	23 2f       	mov	r18, r19
     b0e:	34 2f       	mov	r19, r20
     b10:	44 27       	eor	r20, r20
     b12:	58 5f       	subi	r21, 0xF8	; 248
     b14:	f3 cf       	rjmp	.-26     	; 0xafc <__addsf3x+0x38>
     b16:	46 95       	lsr	r20
     b18:	37 95       	ror	r19
     b1a:	27 95       	ror	r18
     b1c:	a7 95       	ror	r26
     b1e:	f0 40       	sbci	r31, 0x00	; 0
     b20:	53 95       	inc	r21
     b22:	c9 f7       	brne	.-14     	; 0xb16 <__addsf3x+0x52>
     b24:	7e f4       	brtc	.+30     	; 0xb44 <__addsf3x+0x80>
     b26:	1f 16       	cp	r1, r31
     b28:	ba 0b       	sbc	r27, r26
     b2a:	62 0b       	sbc	r22, r18
     b2c:	73 0b       	sbc	r23, r19
     b2e:	84 0b       	sbc	r24, r20
     b30:	ba f0       	brmi	.+46     	; 0xb60 <__addsf3x+0x9c>
     b32:	91 50       	subi	r25, 0x01	; 1
     b34:	a1 f0       	breq	.+40     	; 0xb5e <__addsf3x+0x9a>
     b36:	ff 0f       	add	r31, r31
     b38:	bb 1f       	adc	r27, r27
     b3a:	66 1f       	adc	r22, r22
     b3c:	77 1f       	adc	r23, r23
     b3e:	88 1f       	adc	r24, r24
     b40:	c2 f7       	brpl	.-16     	; 0xb32 <__addsf3x+0x6e>
     b42:	0e c0       	rjmp	.+28     	; 0xb60 <__addsf3x+0x9c>
     b44:	ba 0f       	add	r27, r26
     b46:	62 1f       	adc	r22, r18
     b48:	73 1f       	adc	r23, r19
     b4a:	84 1f       	adc	r24, r20
     b4c:	48 f4       	brcc	.+18     	; 0xb60 <__addsf3x+0x9c>
     b4e:	87 95       	ror	r24
     b50:	77 95       	ror	r23
     b52:	67 95       	ror	r22
     b54:	b7 95       	ror	r27
     b56:	f7 95       	ror	r31
     b58:	9e 3f       	cpi	r25, 0xFE	; 254
     b5a:	08 f0       	brcs	.+2      	; 0xb5e <__addsf3x+0x9a>
     b5c:	b0 cf       	rjmp	.-160    	; 0xabe <__addsf3+0x28>
     b5e:	93 95       	inc	r25
     b60:	88 0f       	add	r24, r24
     b62:	08 f0       	brcs	.+2      	; 0xb66 <__addsf3x+0xa2>
     b64:	99 27       	eor	r25, r25
     b66:	ee 0f       	add	r30, r30
     b68:	97 95       	ror	r25
     b6a:	87 95       	ror	r24
     b6c:	08 95       	ret

00000b6e <__cmpsf2>:
     b6e:	0e 94 a1 06 	call	0xd42	; 0xd42 <__fp_cmp>
     b72:	08 f4       	brcc	.+2      	; 0xb76 <__cmpsf2+0x8>
     b74:	81 e0       	ldi	r24, 0x01	; 1
     b76:	08 95       	ret

00000b78 <__divsf3>:
     b78:	0e 94 d0 05 	call	0xba0	; 0xba0 <__divsf3x>
     b7c:	0c 94 dc 06 	jmp	0xdb8	; 0xdb8 <__fp_round>
     b80:	0e 94 d5 06 	call	0xdaa	; 0xdaa <__fp_pscB>
     b84:	58 f0       	brcs	.+22     	; 0xb9c <__divsf3+0x24>
     b86:	0e 94 ce 06 	call	0xd9c	; 0xd9c <__fp_pscA>
     b8a:	40 f0       	brcs	.+16     	; 0xb9c <__divsf3+0x24>
     b8c:	29 f4       	brne	.+10     	; 0xb98 <__divsf3+0x20>
     b8e:	5f 3f       	cpi	r21, 0xFF	; 255
     b90:	29 f0       	breq	.+10     	; 0xb9c <__divsf3+0x24>
     b92:	0c 94 c5 06 	jmp	0xd8a	; 0xd8a <__fp_inf>
     b96:	51 11       	cpse	r21, r1
     b98:	0c 94 10 07 	jmp	0xe20	; 0xe20 <__fp_szero>
     b9c:	0c 94 cb 06 	jmp	0xd96	; 0xd96 <__fp_nan>

00000ba0 <__divsf3x>:
     ba0:	0e 94 ed 06 	call	0xdda	; 0xdda <__fp_split3>
     ba4:	68 f3       	brcs	.-38     	; 0xb80 <__divsf3+0x8>

00000ba6 <__divsf3_pse>:
     ba6:	99 23       	and	r25, r25
     ba8:	b1 f3       	breq	.-20     	; 0xb96 <__divsf3+0x1e>
     baa:	55 23       	and	r21, r21
     bac:	91 f3       	breq	.-28     	; 0xb92 <__divsf3+0x1a>
     bae:	95 1b       	sub	r25, r21
     bb0:	55 0b       	sbc	r21, r21
     bb2:	bb 27       	eor	r27, r27
     bb4:	aa 27       	eor	r26, r26
     bb6:	62 17       	cp	r22, r18
     bb8:	73 07       	cpc	r23, r19
     bba:	84 07       	cpc	r24, r20
     bbc:	38 f0       	brcs	.+14     	; 0xbcc <__divsf3_pse+0x26>
     bbe:	9f 5f       	subi	r25, 0xFF	; 255
     bc0:	5f 4f       	sbci	r21, 0xFF	; 255
     bc2:	22 0f       	add	r18, r18
     bc4:	33 1f       	adc	r19, r19
     bc6:	44 1f       	adc	r20, r20
     bc8:	aa 1f       	adc	r26, r26
     bca:	a9 f3       	breq	.-22     	; 0xbb6 <__divsf3_pse+0x10>
     bcc:	35 d0       	rcall	.+106    	; 0xc38 <__divsf3_pse+0x92>
     bce:	0e 2e       	mov	r0, r30
     bd0:	3a f0       	brmi	.+14     	; 0xbe0 <__divsf3_pse+0x3a>
     bd2:	e0 e8       	ldi	r30, 0x80	; 128
     bd4:	32 d0       	rcall	.+100    	; 0xc3a <__divsf3_pse+0x94>
     bd6:	91 50       	subi	r25, 0x01	; 1
     bd8:	50 40       	sbci	r21, 0x00	; 0
     bda:	e6 95       	lsr	r30
     bdc:	00 1c       	adc	r0, r0
     bde:	ca f7       	brpl	.-14     	; 0xbd2 <__divsf3_pse+0x2c>
     be0:	2b d0       	rcall	.+86     	; 0xc38 <__divsf3_pse+0x92>
     be2:	fe 2f       	mov	r31, r30
     be4:	29 d0       	rcall	.+82     	; 0xc38 <__divsf3_pse+0x92>
     be6:	66 0f       	add	r22, r22
     be8:	77 1f       	adc	r23, r23
     bea:	88 1f       	adc	r24, r24
     bec:	bb 1f       	adc	r27, r27
     bee:	26 17       	cp	r18, r22
     bf0:	37 07       	cpc	r19, r23
     bf2:	48 07       	cpc	r20, r24
     bf4:	ab 07       	cpc	r26, r27
     bf6:	b0 e8       	ldi	r27, 0x80	; 128
     bf8:	09 f0       	breq	.+2      	; 0xbfc <__divsf3_pse+0x56>
     bfa:	bb 0b       	sbc	r27, r27
     bfc:	80 2d       	mov	r24, r0
     bfe:	bf 01       	movw	r22, r30
     c00:	ff 27       	eor	r31, r31
     c02:	93 58       	subi	r25, 0x83	; 131
     c04:	5f 4f       	sbci	r21, 0xFF	; 255
     c06:	3a f0       	brmi	.+14     	; 0xc16 <__divsf3_pse+0x70>
     c08:	9e 3f       	cpi	r25, 0xFE	; 254
     c0a:	51 05       	cpc	r21, r1
     c0c:	78 f0       	brcs	.+30     	; 0xc2c <__divsf3_pse+0x86>
     c0e:	0c 94 c5 06 	jmp	0xd8a	; 0xd8a <__fp_inf>
     c12:	0c 94 10 07 	jmp	0xe20	; 0xe20 <__fp_szero>
     c16:	5f 3f       	cpi	r21, 0xFF	; 255
     c18:	e4 f3       	brlt	.-8      	; 0xc12 <__divsf3_pse+0x6c>
     c1a:	98 3e       	cpi	r25, 0xE8	; 232
     c1c:	d4 f3       	brlt	.-12     	; 0xc12 <__divsf3_pse+0x6c>
     c1e:	86 95       	lsr	r24
     c20:	77 95       	ror	r23
     c22:	67 95       	ror	r22
     c24:	b7 95       	ror	r27
     c26:	f7 95       	ror	r31
     c28:	9f 5f       	subi	r25, 0xFF	; 255
     c2a:	c9 f7       	brne	.-14     	; 0xc1e <__divsf3_pse+0x78>
     c2c:	88 0f       	add	r24, r24
     c2e:	91 1d       	adc	r25, r1
     c30:	96 95       	lsr	r25
     c32:	87 95       	ror	r24
     c34:	97 f9       	bld	r25, 7
     c36:	08 95       	ret
     c38:	e1 e0       	ldi	r30, 0x01	; 1
     c3a:	66 0f       	add	r22, r22
     c3c:	77 1f       	adc	r23, r23
     c3e:	88 1f       	adc	r24, r24
     c40:	bb 1f       	adc	r27, r27
     c42:	62 17       	cp	r22, r18
     c44:	73 07       	cpc	r23, r19
     c46:	84 07       	cpc	r24, r20
     c48:	ba 07       	cpc	r27, r26
     c4a:	20 f0       	brcs	.+8      	; 0xc54 <__divsf3_pse+0xae>
     c4c:	62 1b       	sub	r22, r18
     c4e:	73 0b       	sbc	r23, r19
     c50:	84 0b       	sbc	r24, r20
     c52:	ba 0b       	sbc	r27, r26
     c54:	ee 1f       	adc	r30, r30
     c56:	88 f7       	brcc	.-30     	; 0xc3a <__divsf3_pse+0x94>
     c58:	e0 95       	com	r30
     c5a:	08 95       	ret

00000c5c <__fixsfsi>:
     c5c:	0e 94 35 06 	call	0xc6a	; 0xc6a <__fixunssfsi>
     c60:	68 94       	set
     c62:	b1 11       	cpse	r27, r1
     c64:	0c 94 10 07 	jmp	0xe20	; 0xe20 <__fp_szero>
     c68:	08 95       	ret

00000c6a <__fixunssfsi>:
     c6a:	0e 94 f5 06 	call	0xdea	; 0xdea <__fp_splitA>
     c6e:	88 f0       	brcs	.+34     	; 0xc92 <__fixunssfsi+0x28>
     c70:	9f 57       	subi	r25, 0x7F	; 127
     c72:	98 f0       	brcs	.+38     	; 0xc9a <__fixunssfsi+0x30>
     c74:	b9 2f       	mov	r27, r25
     c76:	99 27       	eor	r25, r25
     c78:	b7 51       	subi	r27, 0x17	; 23
     c7a:	b0 f0       	brcs	.+44     	; 0xca8 <__fixunssfsi+0x3e>
     c7c:	e1 f0       	breq	.+56     	; 0xcb6 <__fixunssfsi+0x4c>
     c7e:	66 0f       	add	r22, r22
     c80:	77 1f       	adc	r23, r23
     c82:	88 1f       	adc	r24, r24
     c84:	99 1f       	adc	r25, r25
     c86:	1a f0       	brmi	.+6      	; 0xc8e <__fixunssfsi+0x24>
     c88:	ba 95       	dec	r27
     c8a:	c9 f7       	brne	.-14     	; 0xc7e <__fixunssfsi+0x14>
     c8c:	14 c0       	rjmp	.+40     	; 0xcb6 <__fixunssfsi+0x4c>
     c8e:	b1 30       	cpi	r27, 0x01	; 1
     c90:	91 f0       	breq	.+36     	; 0xcb6 <__fixunssfsi+0x4c>
     c92:	0e 94 0f 07 	call	0xe1e	; 0xe1e <__fp_zero>
     c96:	b1 e0       	ldi	r27, 0x01	; 1
     c98:	08 95       	ret
     c9a:	0c 94 0f 07 	jmp	0xe1e	; 0xe1e <__fp_zero>
     c9e:	67 2f       	mov	r22, r23
     ca0:	78 2f       	mov	r23, r24
     ca2:	88 27       	eor	r24, r24
     ca4:	b8 5f       	subi	r27, 0xF8	; 248
     ca6:	39 f0       	breq	.+14     	; 0xcb6 <__fixunssfsi+0x4c>
     ca8:	b9 3f       	cpi	r27, 0xF9	; 249
     caa:	cc f3       	brlt	.-14     	; 0xc9e <__fixunssfsi+0x34>
     cac:	86 95       	lsr	r24
     cae:	77 95       	ror	r23
     cb0:	67 95       	ror	r22
     cb2:	b3 95       	inc	r27
     cb4:	d9 f7       	brne	.-10     	; 0xcac <__fixunssfsi+0x42>
     cb6:	3e f4       	brtc	.+14     	; 0xcc6 <__fixunssfsi+0x5c>
     cb8:	90 95       	com	r25
     cba:	80 95       	com	r24
     cbc:	70 95       	com	r23
     cbe:	61 95       	neg	r22
     cc0:	7f 4f       	sbci	r23, 0xFF	; 255
     cc2:	8f 4f       	sbci	r24, 0xFF	; 255
     cc4:	9f 4f       	sbci	r25, 0xFF	; 255
     cc6:	08 95       	ret

00000cc8 <__floatunsisf>:
     cc8:	e8 94       	clt
     cca:	09 c0       	rjmp	.+18     	; 0xcde <__floatsisf+0x12>

00000ccc <__floatsisf>:
     ccc:	97 fb       	bst	r25, 7
     cce:	3e f4       	brtc	.+14     	; 0xcde <__floatsisf+0x12>
     cd0:	90 95       	com	r25
     cd2:	80 95       	com	r24
     cd4:	70 95       	com	r23
     cd6:	61 95       	neg	r22
     cd8:	7f 4f       	sbci	r23, 0xFF	; 255
     cda:	8f 4f       	sbci	r24, 0xFF	; 255
     cdc:	9f 4f       	sbci	r25, 0xFF	; 255
     cde:	99 23       	and	r25, r25
     ce0:	a9 f0       	breq	.+42     	; 0xd0c <__floatsisf+0x40>
     ce2:	f9 2f       	mov	r31, r25
     ce4:	96 e9       	ldi	r25, 0x96	; 150
     ce6:	bb 27       	eor	r27, r27
     ce8:	93 95       	inc	r25
     cea:	f6 95       	lsr	r31
     cec:	87 95       	ror	r24
     cee:	77 95       	ror	r23
     cf0:	67 95       	ror	r22
     cf2:	b7 95       	ror	r27
     cf4:	f1 11       	cpse	r31, r1
     cf6:	f8 cf       	rjmp	.-16     	; 0xce8 <__floatsisf+0x1c>
     cf8:	fa f4       	brpl	.+62     	; 0xd38 <__floatsisf+0x6c>
     cfa:	bb 0f       	add	r27, r27
     cfc:	11 f4       	brne	.+4      	; 0xd02 <__floatsisf+0x36>
     cfe:	60 ff       	sbrs	r22, 0
     d00:	1b c0       	rjmp	.+54     	; 0xd38 <__floatsisf+0x6c>
     d02:	6f 5f       	subi	r22, 0xFF	; 255
     d04:	7f 4f       	sbci	r23, 0xFF	; 255
     d06:	8f 4f       	sbci	r24, 0xFF	; 255
     d08:	9f 4f       	sbci	r25, 0xFF	; 255
     d0a:	16 c0       	rjmp	.+44     	; 0xd38 <__floatsisf+0x6c>
     d0c:	88 23       	and	r24, r24
     d0e:	11 f0       	breq	.+4      	; 0xd14 <__floatsisf+0x48>
     d10:	96 e9       	ldi	r25, 0x96	; 150
     d12:	11 c0       	rjmp	.+34     	; 0xd36 <__floatsisf+0x6a>
     d14:	77 23       	and	r23, r23
     d16:	21 f0       	breq	.+8      	; 0xd20 <__floatsisf+0x54>
     d18:	9e e8       	ldi	r25, 0x8E	; 142
     d1a:	87 2f       	mov	r24, r23
     d1c:	76 2f       	mov	r23, r22
     d1e:	05 c0       	rjmp	.+10     	; 0xd2a <__floatsisf+0x5e>
     d20:	66 23       	and	r22, r22
     d22:	71 f0       	breq	.+28     	; 0xd40 <__floatsisf+0x74>
     d24:	96 e8       	ldi	r25, 0x86	; 134
     d26:	86 2f       	mov	r24, r22
     d28:	70 e0       	ldi	r23, 0x00	; 0
     d2a:	60 e0       	ldi	r22, 0x00	; 0
     d2c:	2a f0       	brmi	.+10     	; 0xd38 <__floatsisf+0x6c>
     d2e:	9a 95       	dec	r25
     d30:	66 0f       	add	r22, r22
     d32:	77 1f       	adc	r23, r23
     d34:	88 1f       	adc	r24, r24
     d36:	da f7       	brpl	.-10     	; 0xd2e <__floatsisf+0x62>
     d38:	88 0f       	add	r24, r24
     d3a:	96 95       	lsr	r25
     d3c:	87 95       	ror	r24
     d3e:	97 f9       	bld	r25, 7
     d40:	08 95       	ret

00000d42 <__fp_cmp>:
     d42:	99 0f       	add	r25, r25
     d44:	00 08       	sbc	r0, r0
     d46:	55 0f       	add	r21, r21
     d48:	aa 0b       	sbc	r26, r26
     d4a:	e0 e8       	ldi	r30, 0x80	; 128
     d4c:	fe ef       	ldi	r31, 0xFE	; 254
     d4e:	16 16       	cp	r1, r22
     d50:	17 06       	cpc	r1, r23
     d52:	e8 07       	cpc	r30, r24
     d54:	f9 07       	cpc	r31, r25
     d56:	c0 f0       	brcs	.+48     	; 0xd88 <__fp_cmp+0x46>
     d58:	12 16       	cp	r1, r18
     d5a:	13 06       	cpc	r1, r19
     d5c:	e4 07       	cpc	r30, r20
     d5e:	f5 07       	cpc	r31, r21
     d60:	98 f0       	brcs	.+38     	; 0xd88 <__fp_cmp+0x46>
     d62:	62 1b       	sub	r22, r18
     d64:	73 0b       	sbc	r23, r19
     d66:	84 0b       	sbc	r24, r20
     d68:	95 0b       	sbc	r25, r21
     d6a:	39 f4       	brne	.+14     	; 0xd7a <__fp_cmp+0x38>
     d6c:	0a 26       	eor	r0, r26
     d6e:	61 f0       	breq	.+24     	; 0xd88 <__fp_cmp+0x46>
     d70:	23 2b       	or	r18, r19
     d72:	24 2b       	or	r18, r20
     d74:	25 2b       	or	r18, r21
     d76:	21 f4       	brne	.+8      	; 0xd80 <__fp_cmp+0x3e>
     d78:	08 95       	ret
     d7a:	0a 26       	eor	r0, r26
     d7c:	09 f4       	brne	.+2      	; 0xd80 <__fp_cmp+0x3e>
     d7e:	a1 40       	sbci	r26, 0x01	; 1
     d80:	a6 95       	lsr	r26
     d82:	8f ef       	ldi	r24, 0xFF	; 255
     d84:	81 1d       	adc	r24, r1
     d86:	81 1d       	adc	r24, r1
     d88:	08 95       	ret

00000d8a <__fp_inf>:
     d8a:	97 f9       	bld	r25, 7
     d8c:	9f 67       	ori	r25, 0x7F	; 127
     d8e:	80 e8       	ldi	r24, 0x80	; 128
     d90:	70 e0       	ldi	r23, 0x00	; 0
     d92:	60 e0       	ldi	r22, 0x00	; 0
     d94:	08 95       	ret

00000d96 <__fp_nan>:
     d96:	9f ef       	ldi	r25, 0xFF	; 255
     d98:	80 ec       	ldi	r24, 0xC0	; 192
     d9a:	08 95       	ret

00000d9c <__fp_pscA>:
     d9c:	00 24       	eor	r0, r0
     d9e:	0a 94       	dec	r0
     da0:	16 16       	cp	r1, r22
     da2:	17 06       	cpc	r1, r23
     da4:	18 06       	cpc	r1, r24
     da6:	09 06       	cpc	r0, r25
     da8:	08 95       	ret

00000daa <__fp_pscB>:
     daa:	00 24       	eor	r0, r0
     dac:	0a 94       	dec	r0
     dae:	12 16       	cp	r1, r18
     db0:	13 06       	cpc	r1, r19
     db2:	14 06       	cpc	r1, r20
     db4:	05 06       	cpc	r0, r21
     db6:	08 95       	ret

00000db8 <__fp_round>:
     db8:	09 2e       	mov	r0, r25
     dba:	03 94       	inc	r0
     dbc:	00 0c       	add	r0, r0
     dbe:	11 f4       	brne	.+4      	; 0xdc4 <__fp_round+0xc>
     dc0:	88 23       	and	r24, r24
     dc2:	52 f0       	brmi	.+20     	; 0xdd8 <__fp_round+0x20>
     dc4:	bb 0f       	add	r27, r27
     dc6:	40 f4       	brcc	.+16     	; 0xdd8 <__fp_round+0x20>
     dc8:	bf 2b       	or	r27, r31
     dca:	11 f4       	brne	.+4      	; 0xdd0 <__fp_round+0x18>
     dcc:	60 ff       	sbrs	r22, 0
     dce:	04 c0       	rjmp	.+8      	; 0xdd8 <__fp_round+0x20>
     dd0:	6f 5f       	subi	r22, 0xFF	; 255
     dd2:	7f 4f       	sbci	r23, 0xFF	; 255
     dd4:	8f 4f       	sbci	r24, 0xFF	; 255
     dd6:	9f 4f       	sbci	r25, 0xFF	; 255
     dd8:	08 95       	ret

00000dda <__fp_split3>:
     dda:	57 fd       	sbrc	r21, 7
     ddc:	90 58       	subi	r25, 0x80	; 128
     dde:	44 0f       	add	r20, r20
     de0:	55 1f       	adc	r21, r21
     de2:	59 f0       	breq	.+22     	; 0xdfa <__fp_splitA+0x10>
     de4:	5f 3f       	cpi	r21, 0xFF	; 255
     de6:	71 f0       	breq	.+28     	; 0xe04 <__fp_splitA+0x1a>
     de8:	47 95       	ror	r20

00000dea <__fp_splitA>:
     dea:	88 0f       	add	r24, r24
     dec:	97 fb       	bst	r25, 7
     dee:	99 1f       	adc	r25, r25
     df0:	61 f0       	breq	.+24     	; 0xe0a <__fp_splitA+0x20>
     df2:	9f 3f       	cpi	r25, 0xFF	; 255
     df4:	79 f0       	breq	.+30     	; 0xe14 <__fp_splitA+0x2a>
     df6:	87 95       	ror	r24
     df8:	08 95       	ret
     dfa:	12 16       	cp	r1, r18
     dfc:	13 06       	cpc	r1, r19
     dfe:	14 06       	cpc	r1, r20
     e00:	55 1f       	adc	r21, r21
     e02:	f2 cf       	rjmp	.-28     	; 0xde8 <__fp_split3+0xe>
     e04:	46 95       	lsr	r20
     e06:	f1 df       	rcall	.-30     	; 0xdea <__fp_splitA>
     e08:	08 c0       	rjmp	.+16     	; 0xe1a <__fp_splitA+0x30>
     e0a:	16 16       	cp	r1, r22
     e0c:	17 06       	cpc	r1, r23
     e0e:	18 06       	cpc	r1, r24
     e10:	99 1f       	adc	r25, r25
     e12:	f1 cf       	rjmp	.-30     	; 0xdf6 <__fp_splitA+0xc>
     e14:	86 95       	lsr	r24
     e16:	71 05       	cpc	r23, r1
     e18:	61 05       	cpc	r22, r1
     e1a:	08 94       	sec
     e1c:	08 95       	ret

00000e1e <__fp_zero>:
     e1e:	e8 94       	clt

00000e20 <__fp_szero>:
     e20:	bb 27       	eor	r27, r27
     e22:	66 27       	eor	r22, r22
     e24:	77 27       	eor	r23, r23
     e26:	cb 01       	movw	r24, r22
     e28:	97 f9       	bld	r25, 7
     e2a:	08 95       	ret

00000e2c <__mulsf3>:
     e2c:	0e 94 29 07 	call	0xe52	; 0xe52 <__mulsf3x>
     e30:	0c 94 dc 06 	jmp	0xdb8	; 0xdb8 <__fp_round>
     e34:	0e 94 ce 06 	call	0xd9c	; 0xd9c <__fp_pscA>
     e38:	38 f0       	brcs	.+14     	; 0xe48 <__mulsf3+0x1c>
     e3a:	0e 94 d5 06 	call	0xdaa	; 0xdaa <__fp_pscB>
     e3e:	20 f0       	brcs	.+8      	; 0xe48 <__mulsf3+0x1c>
     e40:	95 23       	and	r25, r21
     e42:	11 f0       	breq	.+4      	; 0xe48 <__mulsf3+0x1c>
     e44:	0c 94 c5 06 	jmp	0xd8a	; 0xd8a <__fp_inf>
     e48:	0c 94 cb 06 	jmp	0xd96	; 0xd96 <__fp_nan>
     e4c:	11 24       	eor	r1, r1
     e4e:	0c 94 10 07 	jmp	0xe20	; 0xe20 <__fp_szero>

00000e52 <__mulsf3x>:
     e52:	0e 94 ed 06 	call	0xdda	; 0xdda <__fp_split3>
     e56:	70 f3       	brcs	.-36     	; 0xe34 <__mulsf3+0x8>

00000e58 <__mulsf3_pse>:
     e58:	95 9f       	mul	r25, r21
     e5a:	c1 f3       	breq	.-16     	; 0xe4c <__mulsf3+0x20>
     e5c:	95 0f       	add	r25, r21
     e5e:	50 e0       	ldi	r21, 0x00	; 0
     e60:	55 1f       	adc	r21, r21
     e62:	62 9f       	mul	r22, r18
     e64:	f0 01       	movw	r30, r0
     e66:	72 9f       	mul	r23, r18
     e68:	bb 27       	eor	r27, r27
     e6a:	f0 0d       	add	r31, r0
     e6c:	b1 1d       	adc	r27, r1
     e6e:	63 9f       	mul	r22, r19
     e70:	aa 27       	eor	r26, r26
     e72:	f0 0d       	add	r31, r0
     e74:	b1 1d       	adc	r27, r1
     e76:	aa 1f       	adc	r26, r26
     e78:	64 9f       	mul	r22, r20
     e7a:	66 27       	eor	r22, r22
     e7c:	b0 0d       	add	r27, r0
     e7e:	a1 1d       	adc	r26, r1
     e80:	66 1f       	adc	r22, r22
     e82:	82 9f       	mul	r24, r18
     e84:	22 27       	eor	r18, r18
     e86:	b0 0d       	add	r27, r0
     e88:	a1 1d       	adc	r26, r1
     e8a:	62 1f       	adc	r22, r18
     e8c:	73 9f       	mul	r23, r19
     e8e:	b0 0d       	add	r27, r0
     e90:	a1 1d       	adc	r26, r1
     e92:	62 1f       	adc	r22, r18
     e94:	83 9f       	mul	r24, r19
     e96:	a0 0d       	add	r26, r0
     e98:	61 1d       	adc	r22, r1
     e9a:	22 1f       	adc	r18, r18
     e9c:	74 9f       	mul	r23, r20
     e9e:	33 27       	eor	r19, r19
     ea0:	a0 0d       	add	r26, r0
     ea2:	61 1d       	adc	r22, r1
     ea4:	23 1f       	adc	r18, r19
     ea6:	84 9f       	mul	r24, r20
     ea8:	60 0d       	add	r22, r0
     eaa:	21 1d       	adc	r18, r1
     eac:	82 2f       	mov	r24, r18
     eae:	76 2f       	mov	r23, r22
     eb0:	6a 2f       	mov	r22, r26
     eb2:	11 24       	eor	r1, r1
     eb4:	9f 57       	subi	r25, 0x7F	; 127
     eb6:	50 40       	sbci	r21, 0x00	; 0
     eb8:	9a f0       	brmi	.+38     	; 0xee0 <__mulsf3_pse+0x88>
     eba:	f1 f0       	breq	.+60     	; 0xef8 <__mulsf3_pse+0xa0>
     ebc:	88 23       	and	r24, r24
     ebe:	4a f0       	brmi	.+18     	; 0xed2 <__mulsf3_pse+0x7a>
     ec0:	ee 0f       	add	r30, r30
     ec2:	ff 1f       	adc	r31, r31
     ec4:	bb 1f       	adc	r27, r27
     ec6:	66 1f       	adc	r22, r22
     ec8:	77 1f       	adc	r23, r23
     eca:	88 1f       	adc	r24, r24
     ecc:	91 50       	subi	r25, 0x01	; 1
     ece:	50 40       	sbci	r21, 0x00	; 0
     ed0:	a9 f7       	brne	.-22     	; 0xebc <__mulsf3_pse+0x64>
     ed2:	9e 3f       	cpi	r25, 0xFE	; 254
     ed4:	51 05       	cpc	r21, r1
     ed6:	80 f0       	brcs	.+32     	; 0xef8 <__mulsf3_pse+0xa0>
     ed8:	0c 94 c5 06 	jmp	0xd8a	; 0xd8a <__fp_inf>
     edc:	0c 94 10 07 	jmp	0xe20	; 0xe20 <__fp_szero>
     ee0:	5f 3f       	cpi	r21, 0xFF	; 255
     ee2:	e4 f3       	brlt	.-8      	; 0xedc <__mulsf3_pse+0x84>
     ee4:	98 3e       	cpi	r25, 0xE8	; 232
     ee6:	d4 f3       	brlt	.-12     	; 0xedc <__mulsf3_pse+0x84>
     ee8:	86 95       	lsr	r24
     eea:	77 95       	ror	r23
     eec:	67 95       	ror	r22
     eee:	b7 95       	ror	r27
     ef0:	f7 95       	ror	r31
     ef2:	e7 95       	ror	r30
     ef4:	9f 5f       	subi	r25, 0xFF	; 255
     ef6:	c1 f7       	brne	.-16     	; 0xee8 <__mulsf3_pse+0x90>
     ef8:	fe 2b       	or	r31, r30
     efa:	88 0f       	add	r24, r24
     efc:	91 1d       	adc	r25, r1
     efe:	96 95       	lsr	r25
     f00:	87 95       	ror	r24
     f02:	97 f9       	bld	r25, 7
     f04:	08 95       	ret

00000f06 <__divmodhi4>:
     f06:	97 fb       	bst	r25, 7
     f08:	07 2e       	mov	r0, r23
     f0a:	16 f4       	brtc	.+4      	; 0xf10 <__divmodhi4+0xa>
     f0c:	00 94       	com	r0
     f0e:	07 d0       	rcall	.+14     	; 0xf1e <__divmodhi4_neg1>
     f10:	77 fd       	sbrc	r23, 7
     f12:	09 d0       	rcall	.+18     	; 0xf26 <__divmodhi4_neg2>
     f14:	0e 94 b9 07 	call	0xf72	; 0xf72 <__udivmodhi4>
     f18:	07 fc       	sbrc	r0, 7
     f1a:	05 d0       	rcall	.+10     	; 0xf26 <__divmodhi4_neg2>
     f1c:	3e f4       	brtc	.+14     	; 0xf2c <__divmodhi4_exit>

00000f1e <__divmodhi4_neg1>:
     f1e:	90 95       	com	r25
     f20:	81 95       	neg	r24
     f22:	9f 4f       	sbci	r25, 0xFF	; 255
     f24:	08 95       	ret

00000f26 <__divmodhi4_neg2>:
     f26:	70 95       	com	r23
     f28:	61 95       	neg	r22
     f2a:	7f 4f       	sbci	r23, 0xFF	; 255

00000f2c <__divmodhi4_exit>:
     f2c:	08 95       	ret

00000f2e <__udivmodsi4>:
     f2e:	a1 e2       	ldi	r26, 0x21	; 33
     f30:	1a 2e       	mov	r1, r26
     f32:	aa 1b       	sub	r26, r26
     f34:	bb 1b       	sub	r27, r27
     f36:	fd 01       	movw	r30, r26
     f38:	0d c0       	rjmp	.+26     	; 0xf54 <__udivmodsi4_ep>

00000f3a <__udivmodsi4_loop>:
     f3a:	aa 1f       	adc	r26, r26
     f3c:	bb 1f       	adc	r27, r27
     f3e:	ee 1f       	adc	r30, r30
     f40:	ff 1f       	adc	r31, r31
     f42:	a2 17       	cp	r26, r18
     f44:	b3 07       	cpc	r27, r19
     f46:	e4 07       	cpc	r30, r20
     f48:	f5 07       	cpc	r31, r21
     f4a:	20 f0       	brcs	.+8      	; 0xf54 <__udivmodsi4_ep>
     f4c:	a2 1b       	sub	r26, r18
     f4e:	b3 0b       	sbc	r27, r19
     f50:	e4 0b       	sbc	r30, r20
     f52:	f5 0b       	sbc	r31, r21

00000f54 <__udivmodsi4_ep>:
     f54:	66 1f       	adc	r22, r22
     f56:	77 1f       	adc	r23, r23
     f58:	88 1f       	adc	r24, r24
     f5a:	99 1f       	adc	r25, r25
     f5c:	1a 94       	dec	r1
     f5e:	69 f7       	brne	.-38     	; 0xf3a <__udivmodsi4_loop>
     f60:	60 95       	com	r22
     f62:	70 95       	com	r23
     f64:	80 95       	com	r24
     f66:	90 95       	com	r25
     f68:	9b 01       	movw	r18, r22
     f6a:	ac 01       	movw	r20, r24
     f6c:	bd 01       	movw	r22, r26
     f6e:	cf 01       	movw	r24, r30
     f70:	08 95       	ret

00000f72 <__udivmodhi4>:
     f72:	aa 1b       	sub	r26, r26
     f74:	bb 1b       	sub	r27, r27
     f76:	51 e1       	ldi	r21, 0x11	; 17
     f78:	07 c0       	rjmp	.+14     	; 0xf88 <__udivmodhi4_ep>

00000f7a <__udivmodhi4_loop>:
     f7a:	aa 1f       	adc	r26, r26
     f7c:	bb 1f       	adc	r27, r27
     f7e:	a6 17       	cp	r26, r22
     f80:	b7 07       	cpc	r27, r23
     f82:	10 f0       	brcs	.+4      	; 0xf88 <__udivmodhi4_ep>
     f84:	a6 1b       	sub	r26, r22
     f86:	b7 0b       	sbc	r27, r23

00000f88 <__udivmodhi4_ep>:
     f88:	88 1f       	adc	r24, r24
     f8a:	99 1f       	adc	r25, r25
     f8c:	5a 95       	dec	r21
     f8e:	a9 f7       	brne	.-22     	; 0xf7a <__udivmodhi4_loop>
     f90:	80 95       	com	r24
     f92:	90 95       	com	r25
     f94:	bc 01       	movw	r22, r24
     f96:	cd 01       	movw	r24, r26
     f98:	08 95       	ret

00000f9a <strcat>:
     f9a:	fb 01       	movw	r30, r22
     f9c:	dc 01       	movw	r26, r24
     f9e:	0d 90       	ld	r0, X+
     fa0:	00 20       	and	r0, r0
     fa2:	e9 f7       	brne	.-6      	; 0xf9e <strcat+0x4>
     fa4:	11 97       	sbiw	r26, 0x01	; 1
     fa6:	01 90       	ld	r0, Z+
     fa8:	0d 92       	st	X+, r0
     faa:	00 20       	and	r0, r0
     fac:	e1 f7       	brne	.-8      	; 0xfa6 <strcat+0xc>
     fae:	08 95       	ret

00000fb0 <__ltoa_ncheck>:
     fb0:	bb 27       	eor	r27, r27
     fb2:	2a 30       	cpi	r18, 0x0A	; 10
     fb4:	51 f4       	brne	.+20     	; 0xfca <__ltoa_ncheck+0x1a>
     fb6:	99 23       	and	r25, r25
     fb8:	42 f4       	brpl	.+16     	; 0xfca <__ltoa_ncheck+0x1a>
     fba:	bd e2       	ldi	r27, 0x2D	; 45
     fbc:	90 95       	com	r25
     fbe:	80 95       	com	r24
     fc0:	70 95       	com	r23
     fc2:	61 95       	neg	r22
     fc4:	7f 4f       	sbci	r23, 0xFF	; 255
     fc6:	8f 4f       	sbci	r24, 0xFF	; 255
     fc8:	9f 4f       	sbci	r25, 0xFF	; 255
     fca:	0c 94 e8 07 	jmp	0xfd0	; 0xfd0 <__ultoa_common>

00000fce <__ultoa_ncheck>:
     fce:	bb 27       	eor	r27, r27

00000fd0 <__ultoa_common>:
     fd0:	fa 01       	movw	r30, r20
     fd2:	a6 2f       	mov	r26, r22
     fd4:	62 17       	cp	r22, r18
     fd6:	71 05       	cpc	r23, r1
     fd8:	81 05       	cpc	r24, r1
     fda:	91 05       	cpc	r25, r1
     fdc:	33 0b       	sbc	r19, r19
     fde:	30 fb       	bst	r19, 0
     fe0:	66 f0       	brts	.+24     	; 0xffa <__ultoa_common+0x2a>
     fe2:	aa 27       	eor	r26, r26
     fe4:	66 0f       	add	r22, r22
     fe6:	77 1f       	adc	r23, r23
     fe8:	88 1f       	adc	r24, r24
     fea:	99 1f       	adc	r25, r25
     fec:	aa 1f       	adc	r26, r26
     fee:	a2 17       	cp	r26, r18
     ff0:	10 f0       	brcs	.+4      	; 0xff6 <__ultoa_common+0x26>
     ff2:	a2 1b       	sub	r26, r18
     ff4:	63 95       	inc	r22
     ff6:	38 50       	subi	r19, 0x08	; 8
     ff8:	a9 f7       	brne	.-22     	; 0xfe4 <__ultoa_common+0x14>
     ffa:	a0 5d       	subi	r26, 0xD0	; 208
     ffc:	aa 33       	cpi	r26, 0x3A	; 58
     ffe:	08 f0       	brcs	.+2      	; 0x1002 <__ultoa_common+0x32>
    1000:	a9 5d       	subi	r26, 0xD9	; 217
    1002:	a1 93       	st	Z+, r26
    1004:	36 f7       	brtc	.-52     	; 0xfd2 <__ultoa_common+0x2>
    1006:	b1 11       	cpse	r27, r1
    1008:	b1 93       	st	Z+, r27
    100a:	10 82       	st	Z, r1
    100c:	ca 01       	movw	r24, r20
    100e:	0c 94 22 0a 	jmp	0x1444	; 0x1444 <strrev>

00001012 <sprintf>:
    1012:	ae e0       	ldi	r26, 0x0E	; 14
    1014:	b0 e0       	ldi	r27, 0x00	; 0
    1016:	ef e0       	ldi	r30, 0x0F	; 15
    1018:	f8 e0       	ldi	r31, 0x08	; 8
    101a:	0c 94 da 0a 	jmp	0x15b4	; 0x15b4 <__prologue_saves__+0x1c>
    101e:	0d 89       	ldd	r16, Y+21	; 0x15
    1020:	1e 89       	ldd	r17, Y+22	; 0x16
    1022:	86 e0       	ldi	r24, 0x06	; 6
    1024:	8c 83       	std	Y+4, r24	; 0x04
    1026:	1a 83       	std	Y+2, r17	; 0x02
    1028:	09 83       	std	Y+1, r16	; 0x01
    102a:	8f ef       	ldi	r24, 0xFF	; 255
    102c:	9f e7       	ldi	r25, 0x7F	; 127
    102e:	9e 83       	std	Y+6, r25	; 0x06
    1030:	8d 83       	std	Y+5, r24	; 0x05
    1032:	ae 01       	movw	r20, r28
    1034:	47 5e       	subi	r20, 0xE7	; 231
    1036:	5f 4f       	sbci	r21, 0xFF	; 255
    1038:	6f 89       	ldd	r22, Y+23	; 0x17
    103a:	78 8d       	ldd	r23, Y+24	; 0x18
    103c:	ce 01       	movw	r24, r28
    103e:	01 96       	adiw	r24, 0x01	; 1
    1040:	0e 94 2b 08 	call	0x1056	; 0x1056 <vfprintf>
    1044:	ef 81       	ldd	r30, Y+7	; 0x07
    1046:	f8 85       	ldd	r31, Y+8	; 0x08
    1048:	e0 0f       	add	r30, r16
    104a:	f1 1f       	adc	r31, r17
    104c:	10 82       	st	Z, r1
    104e:	2e 96       	adiw	r28, 0x0e	; 14
    1050:	e4 e0       	ldi	r30, 0x04	; 4
    1052:	0c 94 f6 0a 	jmp	0x15ec	; 0x15ec <__epilogue_restores__+0x1c>

00001056 <vfprintf>:
    1056:	ab e0       	ldi	r26, 0x0B	; 11
    1058:	b0 e0       	ldi	r27, 0x00	; 0
    105a:	e1 e3       	ldi	r30, 0x31	; 49
    105c:	f8 e0       	ldi	r31, 0x08	; 8
    105e:	0c 94 cc 0a 	jmp	0x1598	; 0x1598 <__prologue_saves__>
    1062:	6c 01       	movw	r12, r24
    1064:	7b 01       	movw	r14, r22
    1066:	8a 01       	movw	r16, r20
    1068:	fc 01       	movw	r30, r24
    106a:	17 82       	std	Z+7, r1	; 0x07
    106c:	16 82       	std	Z+6, r1	; 0x06
    106e:	83 81       	ldd	r24, Z+3	; 0x03
    1070:	81 ff       	sbrs	r24, 1
    1072:	cc c1       	rjmp	.+920    	; 0x140c <vfprintf+0x3b6>
    1074:	ce 01       	movw	r24, r28
    1076:	01 96       	adiw	r24, 0x01	; 1
    1078:	3c 01       	movw	r6, r24
    107a:	f6 01       	movw	r30, r12
    107c:	93 81       	ldd	r25, Z+3	; 0x03
    107e:	f7 01       	movw	r30, r14
    1080:	93 fd       	sbrc	r25, 3
    1082:	85 91       	lpm	r24, Z+
    1084:	93 ff       	sbrs	r25, 3
    1086:	81 91       	ld	r24, Z+
    1088:	7f 01       	movw	r14, r30
    108a:	88 23       	and	r24, r24
    108c:	09 f4       	brne	.+2      	; 0x1090 <vfprintf+0x3a>
    108e:	ba c1       	rjmp	.+884    	; 0x1404 <vfprintf+0x3ae>
    1090:	85 32       	cpi	r24, 0x25	; 37
    1092:	39 f4       	brne	.+14     	; 0x10a2 <vfprintf+0x4c>
    1094:	93 fd       	sbrc	r25, 3
    1096:	85 91       	lpm	r24, Z+
    1098:	93 ff       	sbrs	r25, 3
    109a:	81 91       	ld	r24, Z+
    109c:	7f 01       	movw	r14, r30
    109e:	85 32       	cpi	r24, 0x25	; 37
    10a0:	29 f4       	brne	.+10     	; 0x10ac <vfprintf+0x56>
    10a2:	b6 01       	movw	r22, r12
    10a4:	90 e0       	ldi	r25, 0x00	; 0
    10a6:	0e 94 32 0a 	call	0x1464	; 0x1464 <fputc>
    10aa:	e7 cf       	rjmp	.-50     	; 0x107a <vfprintf+0x24>
    10ac:	91 2c       	mov	r9, r1
    10ae:	21 2c       	mov	r2, r1
    10b0:	31 2c       	mov	r3, r1
    10b2:	ff e1       	ldi	r31, 0x1F	; 31
    10b4:	f3 15       	cp	r31, r3
    10b6:	d8 f0       	brcs	.+54     	; 0x10ee <vfprintf+0x98>
    10b8:	8b 32       	cpi	r24, 0x2B	; 43
    10ba:	79 f0       	breq	.+30     	; 0x10da <vfprintf+0x84>
    10bc:	38 f4       	brcc	.+14     	; 0x10cc <vfprintf+0x76>
    10be:	80 32       	cpi	r24, 0x20	; 32
    10c0:	79 f0       	breq	.+30     	; 0x10e0 <vfprintf+0x8a>
    10c2:	83 32       	cpi	r24, 0x23	; 35
    10c4:	a1 f4       	brne	.+40     	; 0x10ee <vfprintf+0x98>
    10c6:	23 2d       	mov	r18, r3
    10c8:	20 61       	ori	r18, 0x10	; 16
    10ca:	1d c0       	rjmp	.+58     	; 0x1106 <vfprintf+0xb0>
    10cc:	8d 32       	cpi	r24, 0x2D	; 45
    10ce:	61 f0       	breq	.+24     	; 0x10e8 <vfprintf+0x92>
    10d0:	80 33       	cpi	r24, 0x30	; 48
    10d2:	69 f4       	brne	.+26     	; 0x10ee <vfprintf+0x98>
    10d4:	23 2d       	mov	r18, r3
    10d6:	21 60       	ori	r18, 0x01	; 1
    10d8:	16 c0       	rjmp	.+44     	; 0x1106 <vfprintf+0xb0>
    10da:	83 2d       	mov	r24, r3
    10dc:	82 60       	ori	r24, 0x02	; 2
    10de:	38 2e       	mov	r3, r24
    10e0:	e3 2d       	mov	r30, r3
    10e2:	e4 60       	ori	r30, 0x04	; 4
    10e4:	3e 2e       	mov	r3, r30
    10e6:	2a c0       	rjmp	.+84     	; 0x113c <vfprintf+0xe6>
    10e8:	f3 2d       	mov	r31, r3
    10ea:	f8 60       	ori	r31, 0x08	; 8
    10ec:	1d c0       	rjmp	.+58     	; 0x1128 <vfprintf+0xd2>
    10ee:	37 fc       	sbrc	r3, 7
    10f0:	2d c0       	rjmp	.+90     	; 0x114c <vfprintf+0xf6>
    10f2:	20 ed       	ldi	r18, 0xD0	; 208
    10f4:	28 0f       	add	r18, r24
    10f6:	2a 30       	cpi	r18, 0x0A	; 10
    10f8:	40 f0       	brcs	.+16     	; 0x110a <vfprintf+0xb4>
    10fa:	8e 32       	cpi	r24, 0x2E	; 46
    10fc:	b9 f4       	brne	.+46     	; 0x112c <vfprintf+0xd6>
    10fe:	36 fc       	sbrc	r3, 6
    1100:	81 c1       	rjmp	.+770    	; 0x1404 <vfprintf+0x3ae>
    1102:	23 2d       	mov	r18, r3
    1104:	20 64       	ori	r18, 0x40	; 64
    1106:	32 2e       	mov	r3, r18
    1108:	19 c0       	rjmp	.+50     	; 0x113c <vfprintf+0xe6>
    110a:	36 fe       	sbrs	r3, 6
    110c:	06 c0       	rjmp	.+12     	; 0x111a <vfprintf+0xc4>
    110e:	8a e0       	ldi	r24, 0x0A	; 10
    1110:	98 9e       	mul	r9, r24
    1112:	20 0d       	add	r18, r0
    1114:	11 24       	eor	r1, r1
    1116:	92 2e       	mov	r9, r18
    1118:	11 c0       	rjmp	.+34     	; 0x113c <vfprintf+0xe6>
    111a:	ea e0       	ldi	r30, 0x0A	; 10
    111c:	2e 9e       	mul	r2, r30
    111e:	20 0d       	add	r18, r0
    1120:	11 24       	eor	r1, r1
    1122:	22 2e       	mov	r2, r18
    1124:	f3 2d       	mov	r31, r3
    1126:	f0 62       	ori	r31, 0x20	; 32
    1128:	3f 2e       	mov	r3, r31
    112a:	08 c0       	rjmp	.+16     	; 0x113c <vfprintf+0xe6>
    112c:	8c 36       	cpi	r24, 0x6C	; 108
    112e:	21 f4       	brne	.+8      	; 0x1138 <vfprintf+0xe2>
    1130:	83 2d       	mov	r24, r3
    1132:	80 68       	ori	r24, 0x80	; 128
    1134:	38 2e       	mov	r3, r24
    1136:	02 c0       	rjmp	.+4      	; 0x113c <vfprintf+0xe6>
    1138:	88 36       	cpi	r24, 0x68	; 104
    113a:	41 f4       	brne	.+16     	; 0x114c <vfprintf+0xf6>
    113c:	f7 01       	movw	r30, r14
    113e:	93 fd       	sbrc	r25, 3
    1140:	85 91       	lpm	r24, Z+
    1142:	93 ff       	sbrs	r25, 3
    1144:	81 91       	ld	r24, Z+
    1146:	7f 01       	movw	r14, r30
    1148:	81 11       	cpse	r24, r1
    114a:	b3 cf       	rjmp	.-154    	; 0x10b2 <vfprintf+0x5c>
    114c:	98 2f       	mov	r25, r24
    114e:	9f 7d       	andi	r25, 0xDF	; 223
    1150:	95 54       	subi	r25, 0x45	; 69
    1152:	93 30       	cpi	r25, 0x03	; 3
    1154:	28 f4       	brcc	.+10     	; 0x1160 <vfprintf+0x10a>
    1156:	0c 5f       	subi	r16, 0xFC	; 252
    1158:	1f 4f       	sbci	r17, 0xFF	; 255
    115a:	9f e3       	ldi	r25, 0x3F	; 63
    115c:	99 83       	std	Y+1, r25	; 0x01
    115e:	0d c0       	rjmp	.+26     	; 0x117a <vfprintf+0x124>
    1160:	83 36       	cpi	r24, 0x63	; 99
    1162:	31 f0       	breq	.+12     	; 0x1170 <vfprintf+0x11a>
    1164:	83 37       	cpi	r24, 0x73	; 115
    1166:	71 f0       	breq	.+28     	; 0x1184 <vfprintf+0x12e>
    1168:	83 35       	cpi	r24, 0x53	; 83
    116a:	09 f0       	breq	.+2      	; 0x116e <vfprintf+0x118>
    116c:	59 c0       	rjmp	.+178    	; 0x1220 <vfprintf+0x1ca>
    116e:	21 c0       	rjmp	.+66     	; 0x11b2 <vfprintf+0x15c>
    1170:	f8 01       	movw	r30, r16
    1172:	80 81       	ld	r24, Z
    1174:	89 83       	std	Y+1, r24	; 0x01
    1176:	0e 5f       	subi	r16, 0xFE	; 254
    1178:	1f 4f       	sbci	r17, 0xFF	; 255
    117a:	88 24       	eor	r8, r8
    117c:	83 94       	inc	r8
    117e:	91 2c       	mov	r9, r1
    1180:	53 01       	movw	r10, r6
    1182:	13 c0       	rjmp	.+38     	; 0x11aa <vfprintf+0x154>
    1184:	28 01       	movw	r4, r16
    1186:	f2 e0       	ldi	r31, 0x02	; 2
    1188:	4f 0e       	add	r4, r31
    118a:	51 1c       	adc	r5, r1
    118c:	f8 01       	movw	r30, r16
    118e:	a0 80       	ld	r10, Z
    1190:	b1 80       	ldd	r11, Z+1	; 0x01
    1192:	36 fe       	sbrs	r3, 6
    1194:	03 c0       	rjmp	.+6      	; 0x119c <vfprintf+0x146>
    1196:	69 2d       	mov	r22, r9
    1198:	70 e0       	ldi	r23, 0x00	; 0
    119a:	02 c0       	rjmp	.+4      	; 0x11a0 <vfprintf+0x14a>
    119c:	6f ef       	ldi	r22, 0xFF	; 255
    119e:	7f ef       	ldi	r23, 0xFF	; 255
    11a0:	c5 01       	movw	r24, r10
    11a2:	0e 94 17 0a 	call	0x142e	; 0x142e <strnlen>
    11a6:	4c 01       	movw	r8, r24
    11a8:	82 01       	movw	r16, r4
    11aa:	f3 2d       	mov	r31, r3
    11ac:	ff 77       	andi	r31, 0x7F	; 127
    11ae:	3f 2e       	mov	r3, r31
    11b0:	16 c0       	rjmp	.+44     	; 0x11de <vfprintf+0x188>
    11b2:	28 01       	movw	r4, r16
    11b4:	22 e0       	ldi	r18, 0x02	; 2
    11b6:	42 0e       	add	r4, r18
    11b8:	51 1c       	adc	r5, r1
    11ba:	f8 01       	movw	r30, r16
    11bc:	a0 80       	ld	r10, Z
    11be:	b1 80       	ldd	r11, Z+1	; 0x01
    11c0:	36 fe       	sbrs	r3, 6
    11c2:	03 c0       	rjmp	.+6      	; 0x11ca <vfprintf+0x174>
    11c4:	69 2d       	mov	r22, r9
    11c6:	70 e0       	ldi	r23, 0x00	; 0
    11c8:	02 c0       	rjmp	.+4      	; 0x11ce <vfprintf+0x178>
    11ca:	6f ef       	ldi	r22, 0xFF	; 255
    11cc:	7f ef       	ldi	r23, 0xFF	; 255
    11ce:	c5 01       	movw	r24, r10
    11d0:	0e 94 0c 0a 	call	0x1418	; 0x1418 <strnlen_P>
    11d4:	4c 01       	movw	r8, r24
    11d6:	f3 2d       	mov	r31, r3
    11d8:	f0 68       	ori	r31, 0x80	; 128
    11da:	3f 2e       	mov	r3, r31
    11dc:	82 01       	movw	r16, r4
    11de:	33 fc       	sbrc	r3, 3
    11e0:	1b c0       	rjmp	.+54     	; 0x1218 <vfprintf+0x1c2>
    11e2:	82 2d       	mov	r24, r2
    11e4:	90 e0       	ldi	r25, 0x00	; 0
    11e6:	88 16       	cp	r8, r24
    11e8:	99 06       	cpc	r9, r25
    11ea:	b0 f4       	brcc	.+44     	; 0x1218 <vfprintf+0x1c2>
    11ec:	b6 01       	movw	r22, r12
    11ee:	80 e2       	ldi	r24, 0x20	; 32
    11f0:	90 e0       	ldi	r25, 0x00	; 0
    11f2:	0e 94 32 0a 	call	0x1464	; 0x1464 <fputc>
    11f6:	2a 94       	dec	r2
    11f8:	f4 cf       	rjmp	.-24     	; 0x11e2 <vfprintf+0x18c>
    11fa:	f5 01       	movw	r30, r10
    11fc:	37 fc       	sbrc	r3, 7
    11fe:	85 91       	lpm	r24, Z+
    1200:	37 fe       	sbrs	r3, 7
    1202:	81 91       	ld	r24, Z+
    1204:	5f 01       	movw	r10, r30
    1206:	b6 01       	movw	r22, r12
    1208:	90 e0       	ldi	r25, 0x00	; 0
    120a:	0e 94 32 0a 	call	0x1464	; 0x1464 <fputc>
    120e:	21 10       	cpse	r2, r1
    1210:	2a 94       	dec	r2
    1212:	21 e0       	ldi	r18, 0x01	; 1
    1214:	82 1a       	sub	r8, r18
    1216:	91 08       	sbc	r9, r1
    1218:	81 14       	cp	r8, r1
    121a:	91 04       	cpc	r9, r1
    121c:	71 f7       	brne	.-36     	; 0x11fa <vfprintf+0x1a4>
    121e:	e8 c0       	rjmp	.+464    	; 0x13f0 <vfprintf+0x39a>
    1220:	84 36       	cpi	r24, 0x64	; 100
    1222:	11 f0       	breq	.+4      	; 0x1228 <vfprintf+0x1d2>
    1224:	89 36       	cpi	r24, 0x69	; 105
    1226:	41 f5       	brne	.+80     	; 0x1278 <vfprintf+0x222>
    1228:	f8 01       	movw	r30, r16
    122a:	37 fe       	sbrs	r3, 7
    122c:	07 c0       	rjmp	.+14     	; 0x123c <vfprintf+0x1e6>
    122e:	60 81       	ld	r22, Z
    1230:	71 81       	ldd	r23, Z+1	; 0x01
    1232:	82 81       	ldd	r24, Z+2	; 0x02
    1234:	93 81       	ldd	r25, Z+3	; 0x03
    1236:	0c 5f       	subi	r16, 0xFC	; 252
    1238:	1f 4f       	sbci	r17, 0xFF	; 255
    123a:	08 c0       	rjmp	.+16     	; 0x124c <vfprintf+0x1f6>
    123c:	60 81       	ld	r22, Z
    123e:	71 81       	ldd	r23, Z+1	; 0x01
    1240:	07 2e       	mov	r0, r23
    1242:	00 0c       	add	r0, r0
    1244:	88 0b       	sbc	r24, r24
    1246:	99 0b       	sbc	r25, r25
    1248:	0e 5f       	subi	r16, 0xFE	; 254
    124a:	1f 4f       	sbci	r17, 0xFF	; 255
    124c:	f3 2d       	mov	r31, r3
    124e:	ff 76       	andi	r31, 0x6F	; 111
    1250:	3f 2e       	mov	r3, r31
    1252:	97 ff       	sbrs	r25, 7
    1254:	09 c0       	rjmp	.+18     	; 0x1268 <vfprintf+0x212>
    1256:	90 95       	com	r25
    1258:	80 95       	com	r24
    125a:	70 95       	com	r23
    125c:	61 95       	neg	r22
    125e:	7f 4f       	sbci	r23, 0xFF	; 255
    1260:	8f 4f       	sbci	r24, 0xFF	; 255
    1262:	9f 4f       	sbci	r25, 0xFF	; 255
    1264:	f0 68       	ori	r31, 0x80	; 128
    1266:	3f 2e       	mov	r3, r31
    1268:	2a e0       	ldi	r18, 0x0A	; 10
    126a:	30 e0       	ldi	r19, 0x00	; 0
    126c:	a3 01       	movw	r20, r6
    126e:	0e 94 6e 0a 	call	0x14dc	; 0x14dc <__ultoa_invert>
    1272:	88 2e       	mov	r8, r24
    1274:	86 18       	sub	r8, r6
    1276:	45 c0       	rjmp	.+138    	; 0x1302 <vfprintf+0x2ac>
    1278:	85 37       	cpi	r24, 0x75	; 117
    127a:	31 f4       	brne	.+12     	; 0x1288 <vfprintf+0x232>
    127c:	23 2d       	mov	r18, r3
    127e:	2f 7e       	andi	r18, 0xEF	; 239
    1280:	b2 2e       	mov	r11, r18
    1282:	2a e0       	ldi	r18, 0x0A	; 10
    1284:	30 e0       	ldi	r19, 0x00	; 0
    1286:	25 c0       	rjmp	.+74     	; 0x12d2 <vfprintf+0x27c>
    1288:	93 2d       	mov	r25, r3
    128a:	99 7f       	andi	r25, 0xF9	; 249
    128c:	b9 2e       	mov	r11, r25
    128e:	8f 36       	cpi	r24, 0x6F	; 111
    1290:	c1 f0       	breq	.+48     	; 0x12c2 <vfprintf+0x26c>
    1292:	18 f4       	brcc	.+6      	; 0x129a <vfprintf+0x244>
    1294:	88 35       	cpi	r24, 0x58	; 88
    1296:	79 f0       	breq	.+30     	; 0x12b6 <vfprintf+0x260>
    1298:	b5 c0       	rjmp	.+362    	; 0x1404 <vfprintf+0x3ae>
    129a:	80 37       	cpi	r24, 0x70	; 112
    129c:	19 f0       	breq	.+6      	; 0x12a4 <vfprintf+0x24e>
    129e:	88 37       	cpi	r24, 0x78	; 120
    12a0:	21 f0       	breq	.+8      	; 0x12aa <vfprintf+0x254>
    12a2:	b0 c0       	rjmp	.+352    	; 0x1404 <vfprintf+0x3ae>
    12a4:	e9 2f       	mov	r30, r25
    12a6:	e0 61       	ori	r30, 0x10	; 16
    12a8:	be 2e       	mov	r11, r30
    12aa:	b4 fe       	sbrs	r11, 4
    12ac:	0d c0       	rjmp	.+26     	; 0x12c8 <vfprintf+0x272>
    12ae:	fb 2d       	mov	r31, r11
    12b0:	f4 60       	ori	r31, 0x04	; 4
    12b2:	bf 2e       	mov	r11, r31
    12b4:	09 c0       	rjmp	.+18     	; 0x12c8 <vfprintf+0x272>
    12b6:	34 fe       	sbrs	r3, 4
    12b8:	0a c0       	rjmp	.+20     	; 0x12ce <vfprintf+0x278>
    12ba:	29 2f       	mov	r18, r25
    12bc:	26 60       	ori	r18, 0x06	; 6
    12be:	b2 2e       	mov	r11, r18
    12c0:	06 c0       	rjmp	.+12     	; 0x12ce <vfprintf+0x278>
    12c2:	28 e0       	ldi	r18, 0x08	; 8
    12c4:	30 e0       	ldi	r19, 0x00	; 0
    12c6:	05 c0       	rjmp	.+10     	; 0x12d2 <vfprintf+0x27c>
    12c8:	20 e1       	ldi	r18, 0x10	; 16
    12ca:	30 e0       	ldi	r19, 0x00	; 0
    12cc:	02 c0       	rjmp	.+4      	; 0x12d2 <vfprintf+0x27c>
    12ce:	20 e1       	ldi	r18, 0x10	; 16
    12d0:	32 e0       	ldi	r19, 0x02	; 2
    12d2:	f8 01       	movw	r30, r16
    12d4:	b7 fe       	sbrs	r11, 7
    12d6:	07 c0       	rjmp	.+14     	; 0x12e6 <vfprintf+0x290>
    12d8:	60 81       	ld	r22, Z
    12da:	71 81       	ldd	r23, Z+1	; 0x01
    12dc:	82 81       	ldd	r24, Z+2	; 0x02
    12de:	93 81       	ldd	r25, Z+3	; 0x03
    12e0:	0c 5f       	subi	r16, 0xFC	; 252
    12e2:	1f 4f       	sbci	r17, 0xFF	; 255
    12e4:	06 c0       	rjmp	.+12     	; 0x12f2 <vfprintf+0x29c>
    12e6:	60 81       	ld	r22, Z
    12e8:	71 81       	ldd	r23, Z+1	; 0x01
    12ea:	80 e0       	ldi	r24, 0x00	; 0
    12ec:	90 e0       	ldi	r25, 0x00	; 0
    12ee:	0e 5f       	subi	r16, 0xFE	; 254
    12f0:	1f 4f       	sbci	r17, 0xFF	; 255
    12f2:	a3 01       	movw	r20, r6
    12f4:	0e 94 6e 0a 	call	0x14dc	; 0x14dc <__ultoa_invert>
    12f8:	88 2e       	mov	r8, r24
    12fa:	86 18       	sub	r8, r6
    12fc:	fb 2d       	mov	r31, r11
    12fe:	ff 77       	andi	r31, 0x7F	; 127
    1300:	3f 2e       	mov	r3, r31
    1302:	36 fe       	sbrs	r3, 6
    1304:	0d c0       	rjmp	.+26     	; 0x1320 <vfprintf+0x2ca>
    1306:	23 2d       	mov	r18, r3
    1308:	2e 7f       	andi	r18, 0xFE	; 254
    130a:	a2 2e       	mov	r10, r18
    130c:	89 14       	cp	r8, r9
    130e:	58 f4       	brcc	.+22     	; 0x1326 <vfprintf+0x2d0>
    1310:	34 fe       	sbrs	r3, 4
    1312:	0b c0       	rjmp	.+22     	; 0x132a <vfprintf+0x2d4>
    1314:	32 fc       	sbrc	r3, 2
    1316:	09 c0       	rjmp	.+18     	; 0x132a <vfprintf+0x2d4>
    1318:	83 2d       	mov	r24, r3
    131a:	8e 7e       	andi	r24, 0xEE	; 238
    131c:	a8 2e       	mov	r10, r24
    131e:	05 c0       	rjmp	.+10     	; 0x132a <vfprintf+0x2d4>
    1320:	b8 2c       	mov	r11, r8
    1322:	a3 2c       	mov	r10, r3
    1324:	03 c0       	rjmp	.+6      	; 0x132c <vfprintf+0x2d6>
    1326:	b8 2c       	mov	r11, r8
    1328:	01 c0       	rjmp	.+2      	; 0x132c <vfprintf+0x2d6>
    132a:	b9 2c       	mov	r11, r9
    132c:	a4 fe       	sbrs	r10, 4
    132e:	0f c0       	rjmp	.+30     	; 0x134e <vfprintf+0x2f8>
    1330:	fe 01       	movw	r30, r28
    1332:	e8 0d       	add	r30, r8
    1334:	f1 1d       	adc	r31, r1
    1336:	80 81       	ld	r24, Z
    1338:	80 33       	cpi	r24, 0x30	; 48
    133a:	21 f4       	brne	.+8      	; 0x1344 <vfprintf+0x2ee>
    133c:	9a 2d       	mov	r25, r10
    133e:	99 7e       	andi	r25, 0xE9	; 233
    1340:	a9 2e       	mov	r10, r25
    1342:	09 c0       	rjmp	.+18     	; 0x1356 <vfprintf+0x300>
    1344:	a2 fe       	sbrs	r10, 2
    1346:	06 c0       	rjmp	.+12     	; 0x1354 <vfprintf+0x2fe>
    1348:	b3 94       	inc	r11
    134a:	b3 94       	inc	r11
    134c:	04 c0       	rjmp	.+8      	; 0x1356 <vfprintf+0x300>
    134e:	8a 2d       	mov	r24, r10
    1350:	86 78       	andi	r24, 0x86	; 134
    1352:	09 f0       	breq	.+2      	; 0x1356 <vfprintf+0x300>
    1354:	b3 94       	inc	r11
    1356:	a3 fc       	sbrc	r10, 3
    1358:	11 c0       	rjmp	.+34     	; 0x137c <vfprintf+0x326>
    135a:	a0 fe       	sbrs	r10, 0
    135c:	06 c0       	rjmp	.+12     	; 0x136a <vfprintf+0x314>
    135e:	b2 14       	cp	r11, r2
    1360:	88 f4       	brcc	.+34     	; 0x1384 <vfprintf+0x32e>
    1362:	28 0c       	add	r2, r8
    1364:	92 2c       	mov	r9, r2
    1366:	9b 18       	sub	r9, r11
    1368:	0e c0       	rjmp	.+28     	; 0x1386 <vfprintf+0x330>
    136a:	b2 14       	cp	r11, r2
    136c:	60 f4       	brcc	.+24     	; 0x1386 <vfprintf+0x330>
    136e:	b6 01       	movw	r22, r12
    1370:	80 e2       	ldi	r24, 0x20	; 32
    1372:	90 e0       	ldi	r25, 0x00	; 0
    1374:	0e 94 32 0a 	call	0x1464	; 0x1464 <fputc>
    1378:	b3 94       	inc	r11
    137a:	f7 cf       	rjmp	.-18     	; 0x136a <vfprintf+0x314>
    137c:	b2 14       	cp	r11, r2
    137e:	18 f4       	brcc	.+6      	; 0x1386 <vfprintf+0x330>
    1380:	2b 18       	sub	r2, r11
    1382:	02 c0       	rjmp	.+4      	; 0x1388 <vfprintf+0x332>
    1384:	98 2c       	mov	r9, r8
    1386:	21 2c       	mov	r2, r1
    1388:	a4 fe       	sbrs	r10, 4
    138a:	10 c0       	rjmp	.+32     	; 0x13ac <vfprintf+0x356>
    138c:	b6 01       	movw	r22, r12
    138e:	80 e3       	ldi	r24, 0x30	; 48
    1390:	90 e0       	ldi	r25, 0x00	; 0
    1392:	0e 94 32 0a 	call	0x1464	; 0x1464 <fputc>
    1396:	a2 fe       	sbrs	r10, 2
    1398:	17 c0       	rjmp	.+46     	; 0x13c8 <vfprintf+0x372>
    139a:	a1 fc       	sbrc	r10, 1
    139c:	03 c0       	rjmp	.+6      	; 0x13a4 <vfprintf+0x34e>
    139e:	88 e7       	ldi	r24, 0x78	; 120
    13a0:	90 e0       	ldi	r25, 0x00	; 0
    13a2:	02 c0       	rjmp	.+4      	; 0x13a8 <vfprintf+0x352>
    13a4:	88 e5       	ldi	r24, 0x58	; 88
    13a6:	90 e0       	ldi	r25, 0x00	; 0
    13a8:	b6 01       	movw	r22, r12
    13aa:	0c c0       	rjmp	.+24     	; 0x13c4 <vfprintf+0x36e>
    13ac:	8a 2d       	mov	r24, r10
    13ae:	86 78       	andi	r24, 0x86	; 134
    13b0:	59 f0       	breq	.+22     	; 0x13c8 <vfprintf+0x372>
    13b2:	a1 fe       	sbrs	r10, 1
    13b4:	02 c0       	rjmp	.+4      	; 0x13ba <vfprintf+0x364>
    13b6:	8b e2       	ldi	r24, 0x2B	; 43
    13b8:	01 c0       	rjmp	.+2      	; 0x13bc <vfprintf+0x366>
    13ba:	80 e2       	ldi	r24, 0x20	; 32
    13bc:	a7 fc       	sbrc	r10, 7
    13be:	8d e2       	ldi	r24, 0x2D	; 45
    13c0:	b6 01       	movw	r22, r12
    13c2:	90 e0       	ldi	r25, 0x00	; 0
    13c4:	0e 94 32 0a 	call	0x1464	; 0x1464 <fputc>
    13c8:	89 14       	cp	r8, r9
    13ca:	38 f4       	brcc	.+14     	; 0x13da <vfprintf+0x384>
    13cc:	b6 01       	movw	r22, r12
    13ce:	80 e3       	ldi	r24, 0x30	; 48
    13d0:	90 e0       	ldi	r25, 0x00	; 0
    13d2:	0e 94 32 0a 	call	0x1464	; 0x1464 <fputc>
    13d6:	9a 94       	dec	r9
    13d8:	f7 cf       	rjmp	.-18     	; 0x13c8 <vfprintf+0x372>
    13da:	8a 94       	dec	r8
    13dc:	f3 01       	movw	r30, r6
    13de:	e8 0d       	add	r30, r8
    13e0:	f1 1d       	adc	r31, r1
    13e2:	80 81       	ld	r24, Z
    13e4:	b6 01       	movw	r22, r12
    13e6:	90 e0       	ldi	r25, 0x00	; 0
    13e8:	0e 94 32 0a 	call	0x1464	; 0x1464 <fputc>
    13ec:	81 10       	cpse	r8, r1
    13ee:	f5 cf       	rjmp	.-22     	; 0x13da <vfprintf+0x384>
    13f0:	22 20       	and	r2, r2
    13f2:	09 f4       	brne	.+2      	; 0x13f6 <vfprintf+0x3a0>
    13f4:	42 ce       	rjmp	.-892    	; 0x107a <vfprintf+0x24>
    13f6:	b6 01       	movw	r22, r12
    13f8:	80 e2       	ldi	r24, 0x20	; 32
    13fa:	90 e0       	ldi	r25, 0x00	; 0
    13fc:	0e 94 32 0a 	call	0x1464	; 0x1464 <fputc>
    1400:	2a 94       	dec	r2
    1402:	f6 cf       	rjmp	.-20     	; 0x13f0 <vfprintf+0x39a>
    1404:	f6 01       	movw	r30, r12
    1406:	86 81       	ldd	r24, Z+6	; 0x06
    1408:	97 81       	ldd	r25, Z+7	; 0x07
    140a:	02 c0       	rjmp	.+4      	; 0x1410 <vfprintf+0x3ba>
    140c:	8f ef       	ldi	r24, 0xFF	; 255
    140e:	9f ef       	ldi	r25, 0xFF	; 255
    1410:	2b 96       	adiw	r28, 0x0b	; 11
    1412:	e2 e1       	ldi	r30, 0x12	; 18
    1414:	0c 94 e8 0a 	jmp	0x15d0	; 0x15d0 <__epilogue_restores__>

00001418 <strnlen_P>:
    1418:	fc 01       	movw	r30, r24
    141a:	05 90       	lpm	r0, Z+
    141c:	61 50       	subi	r22, 0x01	; 1
    141e:	70 40       	sbci	r23, 0x00	; 0
    1420:	01 10       	cpse	r0, r1
    1422:	d8 f7       	brcc	.-10     	; 0x141a <strnlen_P+0x2>
    1424:	80 95       	com	r24
    1426:	90 95       	com	r25
    1428:	8e 0f       	add	r24, r30
    142a:	9f 1f       	adc	r25, r31
    142c:	08 95       	ret

0000142e <strnlen>:
    142e:	fc 01       	movw	r30, r24
    1430:	61 50       	subi	r22, 0x01	; 1
    1432:	70 40       	sbci	r23, 0x00	; 0
    1434:	01 90       	ld	r0, Z+
    1436:	01 10       	cpse	r0, r1
    1438:	d8 f7       	brcc	.-10     	; 0x1430 <strnlen+0x2>
    143a:	80 95       	com	r24
    143c:	90 95       	com	r25
    143e:	8e 0f       	add	r24, r30
    1440:	9f 1f       	adc	r25, r31
    1442:	08 95       	ret

00001444 <strrev>:
    1444:	dc 01       	movw	r26, r24
    1446:	fc 01       	movw	r30, r24
    1448:	67 2f       	mov	r22, r23
    144a:	71 91       	ld	r23, Z+
    144c:	77 23       	and	r23, r23
    144e:	e1 f7       	brne	.-8      	; 0x1448 <strrev+0x4>
    1450:	32 97       	sbiw	r30, 0x02	; 2
    1452:	04 c0       	rjmp	.+8      	; 0x145c <strrev+0x18>
    1454:	7c 91       	ld	r23, X
    1456:	6d 93       	st	X+, r22
    1458:	70 83       	st	Z, r23
    145a:	62 91       	ld	r22, -Z
    145c:	ae 17       	cp	r26, r30
    145e:	bf 07       	cpc	r27, r31
    1460:	c8 f3       	brcs	.-14     	; 0x1454 <strrev+0x10>
    1462:	08 95       	ret

00001464 <fputc>:
    1464:	0f 93       	push	r16
    1466:	1f 93       	push	r17
    1468:	cf 93       	push	r28
    146a:	df 93       	push	r29
    146c:	fb 01       	movw	r30, r22
    146e:	23 81       	ldd	r18, Z+3	; 0x03
    1470:	21 fd       	sbrc	r18, 1
    1472:	03 c0       	rjmp	.+6      	; 0x147a <fputc+0x16>
    1474:	8f ef       	ldi	r24, 0xFF	; 255
    1476:	9f ef       	ldi	r25, 0xFF	; 255
    1478:	2c c0       	rjmp	.+88     	; 0x14d2 <fputc+0x6e>
    147a:	22 ff       	sbrs	r18, 2
    147c:	16 c0       	rjmp	.+44     	; 0x14aa <fputc+0x46>
    147e:	46 81       	ldd	r20, Z+6	; 0x06
    1480:	57 81       	ldd	r21, Z+7	; 0x07
    1482:	24 81       	ldd	r18, Z+4	; 0x04
    1484:	35 81       	ldd	r19, Z+5	; 0x05
    1486:	42 17       	cp	r20, r18
    1488:	53 07       	cpc	r21, r19
    148a:	44 f4       	brge	.+16     	; 0x149c <fputc+0x38>
    148c:	a0 81       	ld	r26, Z
    148e:	b1 81       	ldd	r27, Z+1	; 0x01
    1490:	9d 01       	movw	r18, r26
    1492:	2f 5f       	subi	r18, 0xFF	; 255
    1494:	3f 4f       	sbci	r19, 0xFF	; 255
    1496:	31 83       	std	Z+1, r19	; 0x01
    1498:	20 83       	st	Z, r18
    149a:	8c 93       	st	X, r24
    149c:	26 81       	ldd	r18, Z+6	; 0x06
    149e:	37 81       	ldd	r19, Z+7	; 0x07
    14a0:	2f 5f       	subi	r18, 0xFF	; 255
    14a2:	3f 4f       	sbci	r19, 0xFF	; 255
    14a4:	37 83       	std	Z+7, r19	; 0x07
    14a6:	26 83       	std	Z+6, r18	; 0x06
    14a8:	14 c0       	rjmp	.+40     	; 0x14d2 <fputc+0x6e>
    14aa:	8b 01       	movw	r16, r22
    14ac:	ec 01       	movw	r28, r24
    14ae:	fb 01       	movw	r30, r22
    14b0:	00 84       	ldd	r0, Z+8	; 0x08
    14b2:	f1 85       	ldd	r31, Z+9	; 0x09
    14b4:	e0 2d       	mov	r30, r0
    14b6:	09 95       	icall
    14b8:	89 2b       	or	r24, r25
    14ba:	e1 f6       	brne	.-72     	; 0x1474 <fputc+0x10>
    14bc:	d8 01       	movw	r26, r16
    14be:	16 96       	adiw	r26, 0x06	; 6
    14c0:	8d 91       	ld	r24, X+
    14c2:	9c 91       	ld	r25, X
    14c4:	17 97       	sbiw	r26, 0x07	; 7
    14c6:	01 96       	adiw	r24, 0x01	; 1
    14c8:	17 96       	adiw	r26, 0x07	; 7
    14ca:	9c 93       	st	X, r25
    14cc:	8e 93       	st	-X, r24
    14ce:	16 97       	sbiw	r26, 0x06	; 6
    14d0:	ce 01       	movw	r24, r28
    14d2:	df 91       	pop	r29
    14d4:	cf 91       	pop	r28
    14d6:	1f 91       	pop	r17
    14d8:	0f 91       	pop	r16
    14da:	08 95       	ret

000014dc <__ultoa_invert>:
    14dc:	fa 01       	movw	r30, r20
    14de:	aa 27       	eor	r26, r26
    14e0:	28 30       	cpi	r18, 0x08	; 8
    14e2:	51 f1       	breq	.+84     	; 0x1538 <__ultoa_invert+0x5c>
    14e4:	20 31       	cpi	r18, 0x10	; 16
    14e6:	81 f1       	breq	.+96     	; 0x1548 <__ultoa_invert+0x6c>
    14e8:	e8 94       	clt
    14ea:	6f 93       	push	r22
    14ec:	6e 7f       	andi	r22, 0xFE	; 254
    14ee:	6e 5f       	subi	r22, 0xFE	; 254
    14f0:	7f 4f       	sbci	r23, 0xFF	; 255
    14f2:	8f 4f       	sbci	r24, 0xFF	; 255
    14f4:	9f 4f       	sbci	r25, 0xFF	; 255
    14f6:	af 4f       	sbci	r26, 0xFF	; 255
    14f8:	b1 e0       	ldi	r27, 0x01	; 1
    14fa:	3e d0       	rcall	.+124    	; 0x1578 <__ultoa_invert+0x9c>
    14fc:	b4 e0       	ldi	r27, 0x04	; 4
    14fe:	3c d0       	rcall	.+120    	; 0x1578 <__ultoa_invert+0x9c>
    1500:	67 0f       	add	r22, r23
    1502:	78 1f       	adc	r23, r24
    1504:	89 1f       	adc	r24, r25
    1506:	9a 1f       	adc	r25, r26
    1508:	a1 1d       	adc	r26, r1
    150a:	68 0f       	add	r22, r24
    150c:	79 1f       	adc	r23, r25
    150e:	8a 1f       	adc	r24, r26
    1510:	91 1d       	adc	r25, r1
    1512:	a1 1d       	adc	r26, r1
    1514:	6a 0f       	add	r22, r26
    1516:	71 1d       	adc	r23, r1
    1518:	81 1d       	adc	r24, r1
    151a:	91 1d       	adc	r25, r1
    151c:	a1 1d       	adc	r26, r1
    151e:	20 d0       	rcall	.+64     	; 0x1560 <__ultoa_invert+0x84>
    1520:	09 f4       	brne	.+2      	; 0x1524 <__ultoa_invert+0x48>
    1522:	68 94       	set
    1524:	3f 91       	pop	r19
    1526:	2a e0       	ldi	r18, 0x0A	; 10
    1528:	26 9f       	mul	r18, r22
    152a:	11 24       	eor	r1, r1
    152c:	30 19       	sub	r19, r0
    152e:	30 5d       	subi	r19, 0xD0	; 208
    1530:	31 93       	st	Z+, r19
    1532:	de f6       	brtc	.-74     	; 0x14ea <__ultoa_invert+0xe>
    1534:	cf 01       	movw	r24, r30
    1536:	08 95       	ret
    1538:	46 2f       	mov	r20, r22
    153a:	47 70       	andi	r20, 0x07	; 7
    153c:	40 5d       	subi	r20, 0xD0	; 208
    153e:	41 93       	st	Z+, r20
    1540:	b3 e0       	ldi	r27, 0x03	; 3
    1542:	0f d0       	rcall	.+30     	; 0x1562 <__ultoa_invert+0x86>
    1544:	c9 f7       	brne	.-14     	; 0x1538 <__ultoa_invert+0x5c>
    1546:	f6 cf       	rjmp	.-20     	; 0x1534 <__ultoa_invert+0x58>
    1548:	46 2f       	mov	r20, r22
    154a:	4f 70       	andi	r20, 0x0F	; 15
    154c:	40 5d       	subi	r20, 0xD0	; 208
    154e:	4a 33       	cpi	r20, 0x3A	; 58
    1550:	18 f0       	brcs	.+6      	; 0x1558 <__ultoa_invert+0x7c>
    1552:	49 5d       	subi	r20, 0xD9	; 217
    1554:	31 fd       	sbrc	r19, 1
    1556:	40 52       	subi	r20, 0x20	; 32
    1558:	41 93       	st	Z+, r20
    155a:	02 d0       	rcall	.+4      	; 0x1560 <__ultoa_invert+0x84>
    155c:	a9 f7       	brne	.-22     	; 0x1548 <__ultoa_invert+0x6c>
    155e:	ea cf       	rjmp	.-44     	; 0x1534 <__ultoa_invert+0x58>
    1560:	b4 e0       	ldi	r27, 0x04	; 4
    1562:	a6 95       	lsr	r26
    1564:	97 95       	ror	r25
    1566:	87 95       	ror	r24
    1568:	77 95       	ror	r23
    156a:	67 95       	ror	r22
    156c:	ba 95       	dec	r27
    156e:	c9 f7       	brne	.-14     	; 0x1562 <__ultoa_invert+0x86>
    1570:	00 97       	sbiw	r24, 0x00	; 0
    1572:	61 05       	cpc	r22, r1
    1574:	71 05       	cpc	r23, r1
    1576:	08 95       	ret
    1578:	9b 01       	movw	r18, r22
    157a:	ac 01       	movw	r20, r24
    157c:	0a 2e       	mov	r0, r26
    157e:	06 94       	lsr	r0
    1580:	57 95       	ror	r21
    1582:	47 95       	ror	r20
    1584:	37 95       	ror	r19
    1586:	27 95       	ror	r18
    1588:	ba 95       	dec	r27
    158a:	c9 f7       	brne	.-14     	; 0x157e <__ultoa_invert+0xa2>
    158c:	62 0f       	add	r22, r18
    158e:	73 1f       	adc	r23, r19
    1590:	84 1f       	adc	r24, r20
    1592:	95 1f       	adc	r25, r21
    1594:	a0 1d       	adc	r26, r0
    1596:	08 95       	ret

00001598 <__prologue_saves__>:
    1598:	2f 92       	push	r2
    159a:	3f 92       	push	r3
    159c:	4f 92       	push	r4
    159e:	5f 92       	push	r5
    15a0:	6f 92       	push	r6
    15a2:	7f 92       	push	r7
    15a4:	8f 92       	push	r8
    15a6:	9f 92       	push	r9
    15a8:	af 92       	push	r10
    15aa:	bf 92       	push	r11
    15ac:	cf 92       	push	r12
    15ae:	df 92       	push	r13
    15b0:	ef 92       	push	r14
    15b2:	ff 92       	push	r15
    15b4:	0f 93       	push	r16
    15b6:	1f 93       	push	r17
    15b8:	cf 93       	push	r28
    15ba:	df 93       	push	r29
    15bc:	cd b7       	in	r28, 0x3d	; 61
    15be:	de b7       	in	r29, 0x3e	; 62
    15c0:	ca 1b       	sub	r28, r26
    15c2:	db 0b       	sbc	r29, r27
    15c4:	0f b6       	in	r0, 0x3f	; 63
    15c6:	f8 94       	cli
    15c8:	de bf       	out	0x3e, r29	; 62
    15ca:	0f be       	out	0x3f, r0	; 63
    15cc:	cd bf       	out	0x3d, r28	; 61
    15ce:	09 94       	ijmp

000015d0 <__epilogue_restores__>:
    15d0:	2a 88       	ldd	r2, Y+18	; 0x12
    15d2:	39 88       	ldd	r3, Y+17	; 0x11
    15d4:	48 88       	ldd	r4, Y+16	; 0x10
    15d6:	5f 84       	ldd	r5, Y+15	; 0x0f
    15d8:	6e 84       	ldd	r6, Y+14	; 0x0e
    15da:	7d 84       	ldd	r7, Y+13	; 0x0d
    15dc:	8c 84       	ldd	r8, Y+12	; 0x0c
    15de:	9b 84       	ldd	r9, Y+11	; 0x0b
    15e0:	aa 84       	ldd	r10, Y+10	; 0x0a
    15e2:	b9 84       	ldd	r11, Y+9	; 0x09
    15e4:	c8 84       	ldd	r12, Y+8	; 0x08
    15e6:	df 80       	ldd	r13, Y+7	; 0x07
    15e8:	ee 80       	ldd	r14, Y+6	; 0x06
    15ea:	fd 80       	ldd	r15, Y+5	; 0x05
    15ec:	0c 81       	ldd	r16, Y+4	; 0x04
    15ee:	1b 81       	ldd	r17, Y+3	; 0x03
    15f0:	aa 81       	ldd	r26, Y+2	; 0x02
    15f2:	b9 81       	ldd	r27, Y+1	; 0x01
    15f4:	ce 0f       	add	r28, r30
    15f6:	d1 1d       	adc	r29, r1
    15f8:	0f b6       	in	r0, 0x3f	; 63
    15fa:	f8 94       	cli
    15fc:	de bf       	out	0x3e, r29	; 62
    15fe:	0f be       	out	0x3f, r0	; 63
    1600:	cd bf       	out	0x3d, r28	; 61
    1602:	ed 01       	movw	r28, r26
    1604:	08 95       	ret

00001606 <_exit>:
    1606:	f8 94       	cli

00001608 <__stop_program>:
    1608:	ff cf       	rjmp	.-2      	; 0x1608 <__stop_program>
